
 Start  Stop   Length Name               Class

 00000H 0364CH 0364DH _TEXT              CODE
 0364DH 0BBBDH 08571H LEVEL31_TEXT       CODE
 0BBBEH 0C007H 0044AH SOUNDSYS_TEXT      CODE
 0C008H 0C167H 00160H LISTS_TEXT         CODE
 0C168H 0C3D0H 00269H FRONTEND_TEXT      CODE
 0C3D1H 0DB56H 01786H NEWMAIN_TEXT       CODE
 0DB57H 0DE11H 002BBH BLASTER_TEXT       CODE
 0DE12H 12FDBH 051CAH TUNNELS_TEXT       CODE
 12FDCH 13558H 0057DH INPUT_TEXT         CODE
 13559H 13E84H 0092CH LOADDSO_TEXT       CODE
 13E85H 159AAH 01B26H GFXSYS_TEXT        CODE
 159ABH 170B3H 01709H ANIM_TEXT          CODE
 170B4H 17140H 0008DH RANDOM_TEXT        CODE
 17141H 1765FH 0051FH EMM_TEXT           CODE
 17660H 1783EH 001DFH SCROOL_TEXT        CODE
 1783FH 17D81H 00543H OBJECTS_TEXT       CODE
 17D82H 17E41H 000C0H MODE256_TEXT       CODE
 17E42H 183F1H 005B0H timeasm_TEXT       CODE
 183F2H 18678H 00287H KEYINT_TEXT        CODE
 1867AH 18B7DH 00504H TILEASM_TEXT       CODE
 18B7EH 19455H 008D8H showpic_TEXT       CODE
 19456H 198ADH 00458H graphics_TEXT      CODE
 198AEH 19DC7H 0051AH PRINT_TEXT         CODE
 19DC8H 19ED1H 0010AH COLOUR_TEXT        CODE
 19ED2H 1A423H 00552H DSO_TEXT           CODE
 1A424H 1A8B3H 00490H CT_TEXT            CODE
 1A8C0H 1B27CH 009BDH CTVM_DRV_SEG       CODE
 1B27DH 1BBBFH 00943H _OVRTEXT_          CODE
 1BBC0H 1BBC0H 00000H _FARDATA           FAR_DATA
 1BBC0H 1BBC0H 00000H _FARBSS            FAR_BSS
 1BBC0H 1BBC0H 00000H _OVERLAY_          OVRINFO
 1BBC0H 1BC5BH 0009CH _OVRDATA_          OVRINFO
 1BC60H 1BC7DH 0001EH _STUB_             OVRINFO
 1BC80H 1BC80H 00000H _EXTSEG_           OVRINFO
 1BC80H 1BC80H 00000H _EMSSEG_           OVRINFO
 1BC80H 1BC80H 00000H _VDISKSEG_         OVRINFO
 1BC80H 1BF67H 002E8H _EXEINFO_          OVRINFO
 1BF70H 1BF70H 00000H _1STUB_            STUBSEG
 1BF70H 1BFCBH 0005CH ENDSEQ_TEXT        STUBSEG
 1BFD0H 1C02BH 0005CH LOADG_TEXT         STUBSEG
 1C030H 1C126H 000F7H GOB2_TEXT          STUBSEG
 1C130H 1C1C2H 00093H DEATH_TEXT         STUBSEG
 1C1D0H 1C212H 00043H TORTURE1_TEXT      STUBSEG
 1C220H 1C249H 0002AH REQ1_TEXT          STUBSEG
 1C250H 1C279H 0002AH INTRO1_TEXT        STUBSEG
 1C280H 1C3DFH 00160H A1_TEXT            STUBSEG
 1C3E0H 1C472H 00093H SPID1_TEXT         STUBSEG
 1C480H 1C4D6H 00057H GOOD1_TEXT         STUBSEG
 1C4E0H 1C531H 00052H ROOMS_TEXT         STUBSEG
 1C540H 1C591H 00052H TOMB1_TEXT         STUBSEG
 1C5A0H 1C5ECH 0004DH CREATURE_TEXT      STUBSEG
 1C5F0H 1C71DH 0012EH A2_TEXT            STUBSEG
 1C720H 1C776H 00057H DARK1_TEXT         STUBSEG
 1C780H 1C7BDH 0003EH REALDARK_TEXT      STUBSEG
 1C7C0H 1C82AH 0006BH DRAGON1_TEXT       STUBSEG
 1C830H 1C8BDH 0008EH WITCH1_TEXT        STUBSEG
 1C8C0H 1C970H 000B1H SKULL1_TEXT        STUBSEG
 1C980H 1CA3FH 000C0H LAVA1_TEXT         STUBSEG
 1CA40H 1CA96H 00057H SAC1_TEXT          STUBSEG
 1CAA0H 1CB87H 000E8H FROG1_TEXT         STUBSEG
 1CB90H 1CC2CH 0009DH SOL1_TEXT          STUBSEG
 1CC30H 1CC90H 00061H HOUR1_TEXT         STUBSEG
 1CCA0H 1CE04H 00165H MAC1_TEXT          STUBSEG
 1CE10H 1CE7FH 00070H SIREN1_TEXT        STUBSEG
 1CE80H 1CED1H 00052H LASER1_TEXT        STUBSEG
 1CEE0H 1CFAEH 000CFH ARENA5_TEXT        STUBSEG
 1CFB0H 1D056H 000A7H BAR1_TEXT          STUBSEG
 1D060H 1D133H 000D4H BUB1_TEXT          STUBSEG
 1D140H 1D173H 00034H DISC_TEXT          STUBSEG
 1D180H 1D1E0H 00061H CHESS1_TEXT        STUBSEG
 1D1F0H 1D291H 000A2H DEMON1_TEXT        STUBSEG
 1D2A0H 1D2ECH 0004DH GARDEN1_TEXT       STUBSEG
 1D2F0H 1D35AH 0006BH MED1_TEXT          STUBSEG
 1D360H 1D451H 000F2H ROD1_TEXT          STUBSEG
 1D460H 1D619H 001BAH TUNOBJS_TEXT       STUBSEG
 1D620H 1D770H 00151H ENT_TEXT           STUBSEG
 1D780H 1D7B3H 00034H SOUL1_TEXT         STUBSEG
 1D7C0H 1D8B1H 000F2H EXIT_TEXT          STUBSEG
 1D8C0H 1D92AH 0006BH SWAMP1_TEXT        STUBSEG
 1D930H 1D97CH 0004DH MEMORY_TEXT        STUBSEG
 1D980H 244C9H 06B4AH _DATA              DATA
 244CAH 244CBH 00002H _CVTSEG            DATA
 244CCH 244D1H 00006H _SCNSEG            DATA
 244D2H 244D2H 00000H _CONST             CONST
 244D2H 244F5H 00024H _INIT_             INITDATA
 244F6H 244F6H 00000H _INITEND_          INITDATA
 244F6H 244FBH 00006H _EXIT_             EXITDATA
 244FCH 244FCH 00000H _EXITEND_          EXITDATA
 244FCH 2B073H 06B78H _BSS               BSS
 2B074H 2B074H 00000H _BSSEND            BSSEND
 2B080H 2B0FFH 00080H _STACK             STACK
 2B110H 2BC8AH 00B7BH ENDSEQ_TEXT        :OVY
 2BD70H 2D622H 018B3H LOADG_TEXT         :OVY
 2D740H 3094EH 0320FH GOB2_TEXT          :OVY
 30AF0H 33801H 02D12H DEATH_TEXT         :OVY
 33940H 34501H 00BC2H TORTURE1_TEXT      :OVY
 345B0H 34ADEH 0052FH REQ1_TEXT          :OVY
 34B30H 3544DH 0091EH INTRO1_TEXT        :OVY
 354F0H 378CBH 023DCH A1_TEXT            :OVY
 37A20H 3B01DH 035FEH SPID1_TEXT         :OVY
 3B180H 3C060H 00EE1H GOOD1_TEXT         :OVY
 3C100H 3D66DH 0156EH ROOMS_TEXT         :OVY
 3D760H 3F197H 01A38H TOMB1_TEXT         :OVY
 3F2A0H 40498H 011F9H CREATURE_TEXT      :OVY
 404E0H 42855H 02376H A2_TEXT            :OVY
 42980H 438FEH 00F7FH DARK1_TEXT         :OVY
 439A0H 44CBEH 0131FH REALDARK_TEXT      :OVY
 44D80H 4684FH 01AD0H DRAGON1_TEXT       :OVY
 46980H 4918FH 02810H WITCH1_TEXT        :OVY
 49330H 4BA3CH 0270DH SKULL1_TEXT        :OVY
 4BB80H 4D71FH 01BA0H LAVA1_TEXT         :OVY
 4D830H 4E981H 01152H SAC1_TEXT          :OVY
 4EA60H 5181DH 02DBEH FROG1_TEXT         :OVY
 51990H 53716H 01D87H SOL1_TEXT          :OVY
 53830H 54BF6H 013C7H HOUR1_TEXT         :OVY
 54CD0H 56D50H 02081H MAC1_TEXT          :OVY
 56EB0H 59537H 02688H SIREN1_TEXT        :OVY
 596E0H 5A676H 00F97H LASER1_TEXT        :OVY
 5A720H 5C7F7H 020D8H ARENA5_TEXT        :OVY
 5C960H 5F841H 02EE2H BAR1_TEXT          :OVY
 5F9F0H 61B66H 02177H BUB1_TEXT          :OVY
 61C70H 62158H 004E9H DISC_TEXT          :OVY
 621B0H 637E9H 0163AH CHESS1_TEXT        :OVY
 638D0H 656D2H 01E03H DEMON1_TEXT        :OVY
 657F0H 671ADH 019BEH GARDEN1_TEXT       :OVY
 672A0H 68888H 015E9H MED1_TEXT          :OVY
 68940H 6AB38H 021F9H ROD1_TEXT          :OVY
 6ACF0H 72AC7H 07DD8H TUNOBJS_TEXT       :OVY
 72FE0H 755E5H 02606H ENT_TEXT           :OVY
 75730H 75EBCH 0078DH SOUL1_TEXT         :OVY
 75F30H 77ABAH 01B8BH EXIT_TEXT          :OVY
 77BB0H 79156H 015A7H SWAMP1_TEXT        :OVY
 79240H 79652H 00413H MEMORY_TEXT        :OVY


Detailed map of segments

 0000:0000 0295 C=CODE   S=_TEXT          G=(none)  M=c0.ASM     ACBP=28
 0000:0296 0000 C=CODE   S=_TEXT          G=(none)  M=SBCRWIO.ASM ACBP=48
 0000:0296 0000 C=CODE   S=_TEXT          G=(none)  M=VECTOR.ASM ACBP=48
 0000:0296 0000 C=CODE   S=_TEXT          G=(none)  M=SCANINT.ASM ACBP=48
 0000:0296 0000 C=CODE   S=_TEXT          G=(none)  M=scancard.ASM ACBP=48
 0000:0296 0000 C=CODE   S=_TEXT          G=(none)  M=vocdata.ASM ACBP=48
 0000:0296 0000 C=CODE   S=_TEXT          G=(none)  M=sbcdata.ASM ACBP=48
 0000:0296 0000 C=CODE   S=_TEXT          G=(none)  M=cardhere.ASM ACBP=48
 0000:0296 0000 C=CODE   S=_TEXT          G=(none)  M=dspreset.ASM ACBP=48
 0000:0296 0000 C=CODE   S=_TEXT          G=(none)  M=CTVMASM.ASM ACBP=48
 0000:0296 0000 C=CODE   S=_TEXT          G=(none)  M=OVRMAN     ACBP=28
 0000:0296 0000 C=CODE   S=_TEXT          G=(none)  M=OVRUSER    ACBP=28
 0000:0296 0034 C=CODE   S=_TEXT          G=(none)  M=OVRHALT    ACBP=28
 0000:02CA 0000 C=CODE   S=_TEXT          G=(none)  M=OVRDATA    ACBP=28
 0000:02CA 0001 C=CODE   S=_TEXT          G=(none)  M=OVRHP      ACBP=28
 0000:02CB 002D C=CODE   S=_TEXT          G=(none)  M=ATEXIT     ACBP=28
 0000:02F8 0000 C=CODE   S=_TEXT          G=(none)  M=CTYPE      ACBP=28
 0000:02F8 003D C=CODE   S=_TEXT          G=(none)  M=DOSFATTR   ACBP=28
 0000:0335 0028 C=CODE   S=_TEXT          G=(none)  M=DOSGDRIV   ACBP=28
 0000:035D 0093 C=CODE   S=_TEXT          G=(none)  M=EXIT       ACBP=28
 0000:03F0 0000 C=CODE   S=_TEXT          G=(none)  M=FILES      ACBP=28
 0000:03F0 0000 C=CODE   S=_TEXT          G=(none)  M=FILES2     ACBP=28
 0000:03F0 0000 C=CODE   S=_TEXT          G=(none)  M=FMODE      ACBP=28
 0000:03F0 0026 C=CODE   S=_TEXT          G=(none)  M=GETDATE    ACBP=28
 0000:0416 0039 C=CODE   S=_TEXT          G=(none)  M=GETDISK    ACBP=28
 0000:044F 005C C=CODE   S=_TEXT          G=(none)  M=GETFAT     ACBP=28
 0000:04AB 00AE C=CODE   S=_TEXT          G=(none)  M=H_LDIV     ACBP=28
 0000:0559 0021 C=CODE   S=_TEXT          G=(none)  M=H_LLSH     ACBP=28
 0000:057A 0060 C=CODE   S=_TEXT          G=(none)  M=H_PADD     ACBP=28
 0000:05DA 0028 C=CODE   S=_TEXT          G=(none)  M=H_PSBP     ACBP=28
 0000:0602 004B C=CODE   S=_TEXT          G=(none)  M=IOERROR    ACBP=28
 0000:064D 0011 C=CODE   S=_TEXT          G=(none)  M=ISATTY     ACBP=28
 0000:065E 00A2 C=CODE   S=_TEXT          G=(none)  M=LONGTOA    ACBP=28
 0000:0700 0029 C=CODE   S=_TEXT          G=(none)  M=LSEEK      ACBP=28
 0000:0729 00B6 C=CODE   S=_TEXT          G=(none)  M=MKNAME     ACBP=28
 0000:07DF 0017 C=CODE   S=_TEXT          G=(none)  M=N_LXMUL    ACBP=28
 0000:07F6 0021 C=CODE   S=_TEXT          G=(none)  M=N_PCMP     ACBP=28
 0000:0817 0037 C=CODE   S=_TEXT          G=(none)  M=RAND       ACBP=28
 0000:084E 002F C=CODE   S=_TEXT          G=(none)  M=READA      ACBP=28
 0000:087D 0020 C=CODE   S=_TEXT          G=(none)  M=SEGREAD    ACBP=28
 0000:089D 002A C=CODE   S=_TEXT          G=(none)  M=SETDATE    ACBP=28
 0000:08C7 00BA C=CODE   S=_TEXT          G=(none)  M=SETUPIO    ACBP=28
 0000:0981 0098 C=CODE   S=_TEXT          G=(none)  M=STIME      ACBP=28
 0000:0A19 0000 C=CODE   S=_TEXT          G=(none)  M=STKLEN     ACBP=28
 0000:0A19 0018 C=CODE   S=_TEXT          G=(none)  M=UNLINK     ACBP=28
 0000:0A31 04DB C=CODE   S=_TEXT          G=(none)  M=VPRINTER   ACBP=28
 0000:0F0C 0034 C=CODE   S=_TEXT          G=(none)  M=_STPCPY    ACBP=28
 0000:0F40 0006 C=CODE   S=_TEXT          G=(none)  M=CORELEFT   ACBP=28
 0000:0F46 001F C=CODE   S=_TEXT          G=(none)  M=CVTFAK     ACBP=28
 0000:0F65 009D C=CODE   S=_TEXT          G=(none)  M=DELAY      ACBP=28
 0000:1002 0432 C=CODE   S=_TEXT          G=(none)  M=FARHEAP    ACBP=28
 0000:1434 0140 C=CODE   S=_TEXT          G=(none)  M=FBRK       ACBP=28
 0000:1574 0050 C=CODE   S=_TEXT          G=(none)  M=FCORELFT   ACBP=28
 0000:15C4 00CA C=CODE   S=_TEXT          G=(none)  M=INT86      ACBP=28
 0000:168E 0029 C=CODE   S=_TEXT          G=(none)  M=IOCTL      ACBP=28
 0000:16B7 0004 C=CODE   S=_TEXT          G=(none)  M=REALCVT    ACBP=28
 0000:16BB 012B C=CODE   S=_TEXT          G=(none)  M=SETARGV    ACBP=28
 0000:17E6 001C C=CODE   S=_TEXT          G=(none)  M=SETBLOCK   ACBP=28
 0000:1802 0058 C=CODE   S=_TEXT          G=(none)  M=SETENVP    ACBP=28
 0000:185A 0086 C=CODE   S=_TEXT          G=(none)  M=ATOL       ACBP=28
 0000:18E0 001D C=CODE   S=_TEXT          G=(none)  M=CHMODA     ACBP=28
 0000:18FD 0028 C=CODE   S=_TEXT          G=(none)  M=CLOSE      ACBP=28
 0000:1925 001E C=CODE   S=_TEXT          G=(none)  M=CLOSEA     ACBP=28
 0000:1943 0077 C=CODE   S=_TEXT          G=(none)  M=EOF        ACBP=28
 0000:19BA 00B8 C=CODE   S=_TEXT          G=(none)  M=FCLOSE     ACBP=28
 0000:1A72 00CD C=CODE   S=_TEXT          G=(none)  M=FFLUSH     ACBP=28
 0000:1B3F 0060 C=CODE   S=_TEXT          G=(none)  M=FINDFIRS   ACBP=28
 0000:1B9F 0041 C=CODE   S=_TEXT          G=(none)  M=FLENGTH    ACBP=28
 0000:1BE0 0042 C=CODE   S=_TEXT          G=(none)  M=FLUSHALL   ACBP=28
 0000:1C22 020C C=CODE   S=_TEXT          G=(none)  M=FOPEN      ACBP=28
 0000:1E2E 0182 C=CODE   S=_TEXT          G=(none)  M=FREAD      ACBP=28
 0000:1FB0 01E2 C=CODE   S=_TEXT          G=(none)  M=FSEEK      ACBP=28
 0000:2192 008B C=CODE   S=_TEXT          G=(none)  M=FWRITE     ACBP=28
 0000:221D 01C8 C=CODE   S=_TEXT          G=(none)  M=GETC       ACBP=28
 0000:23E5 0070 C=CODE   S=_TEXT          G=(none)  M=GETENV     ACBP=28
 0000:2455 0070 C=CODE   S=_TEXT          G=(none)  M=LTOA1      ACBP=28
 0000:24C5 0024 C=CODE   S=_TEXT          G=(none)  M=MEMCPY     ACBP=28
 0000:24E9 0043 C=CODE   S=_TEXT          G=(none)  M=MEMSET     ACBP=28
 0000:252C 0073 C=CODE   S=_TEXT          G=(none)  M=MOVMEM     ACBP=28
 0000:259F 019C C=CODE   S=_TEXT          G=(none)  M=OPEN       ACBP=28
 0000:273B 004F C=CODE   S=_TEXT          G=(none)  M=OPENA      ACBP=28
 0000:278A 001B C=CODE   S=_TEXT          G=(none)  M=PRINTF     ACBP=28
 0000:27A5 03C8 C=CODE   S=_TEXT          G=(none)  M=PUTC       ACBP=28
 0000:2B6D 00D1 C=CODE   S=_TEXT          G=(none)  M=READ       ACBP=28
 0000:2C3E 011D C=CODE   S=_TEXT          G=(none)  M=SETVBUF    ACBP=28
 0000:2D5B 003F C=CODE   S=_TEXT          G=(none)  M=STRCAT     ACBP=28
 0000:2D9A 003D C=CODE   S=_TEXT          G=(none)  M=STRCHR     ACBP=28
 0000:2DD7 0029 C=CODE   S=_TEXT          G=(none)  M=STRCPY     ACBP=28
 0000:2E00 001F C=CODE   S=_TEXT          G=(none)  M=STRLEN     ACBP=28
 0000:2E1F 0031 C=CODE   S=_TEXT          G=(none)  M=STRNCPY    ACBP=28
 0000:2E50 032E C=CODE   S=_TEXT          G=(none)  M=TIMECVT    ACBP=28
 0000:317E 02CD C=CODE   S=_TEXT          G=(none)  M=TZSET      ACBP=28
 0000:344B 0151 C=CODE   S=_TEXT          G=(none)  M=WRITE      ACBP=28
 0000:359C 003C C=CODE   S=_TEXT          G=(none)  M=WRITEA     ACBP=28
 0000:35D8 003D C=CODE   S=_TEXT          G=(none)  M=XFCLOSE    ACBP=28
 0000:3615 0038 C=CODE   S=_TEXT          G=(none)  M=XFFLUSH    ACBP=28
 0364:000D 8571 C=CODE   S=LEVEL31_TEXT   G=(none)  M=LEVEL31.C  ACBP=28
 0BBB:000E 044A C=CODE   S=SOUNDSYS_TEXT  G=(none)  M=SOUNDSYS.C ACBP=28
 0C00:0008 0160 C=CODE   S=LISTS_TEXT     G=(none)  M=LISTS.C    ACBP=28
 0C16:0008 0269 C=CODE   S=FRONTEND_TEXT  G=(none)  M=FRONTEND.C ACBP=28
 0C3D:0001 1786 C=CODE   S=NEWMAIN_TEXT   G=(none)  M=NEWMAIN.C  ACBP=28
 0DB5:0007 02BB C=CODE   S=BLASTER_TEXT   G=(none)  M=BLASTER.C  ACBP=28
 0DE1:0002 51CA C=CODE   S=TUNNELS_TEXT   G=(none)  M=TUNNELS.C  ACBP=28
 12FD:000C 057D C=CODE   S=INPUT_TEXT     G=(none)  M=INPUT.C    ACBP=28
 1355:0009 092C C=CODE   S=LOADDSO_TEXT   G=(none)  M=LOADDSO.C  ACBP=28
 13E8:0005 1B26 C=CODE   S=GFXSYS_TEXT    G=(none)  M=GFXSYS.C   ACBP=28
 159A:000B 1709 C=CODE   S=ANIM_TEXT      G=(none)  M=ANIM.C     ACBP=28
 170B:0004 008D C=CODE   S=RANDOM_TEXT    G=(none)  M=RANDOM.C   ACBP=28
 1714:0001 051F C=CODE   S=EMM_TEXT       G=(none)  M=EMM.C      ACBP=28
 1766:0000 01DF C=CODE   S=SCROOL_TEXT    G=(none)  M=SCROOL.C   ACBP=28
 1783:000F 0543 C=CODE   S=OBJECTS_TEXT   G=(none)  M=OBJECTS.C  ACBP=28
 17D8:0002 00C0 C=CODE   S=MODE256_TEXT   G=(none)  M=MODE256.ASM ACBP=48
 17E4:0002 05B0 C=CODE   S=timeasm_TEXT   G=(none)  M=timeasm.ASM ACBP=48
 183F:0002 0287 C=CODE   S=KEYINT_TEXT    G=(none)  M=KEYINT.ASM ACBP=48
 1867:000A 0504 C=CODE   S=TILEASM_TEXT   G=(none)  M=TILEASM.ASM ACBP=48
 18B7:000E 08D8 C=CODE   S=showpic_TEXT   G=(none)  M=showpic.ASM ACBP=48
 1945:0006 0458 C=CODE   S=graphics_TEXT  G=(none)  M=graphics.ASM ACBP=48
 198A:000E 051A C=CODE   S=PRINT_TEXT     G=(none)  M=PRINT.ASM  ACBP=48
 19DC:0008 010A C=CODE   S=COLOUR_TEXT    G=(none)  M=COLOUR.ASM ACBP=48
 19ED:0002 0552 C=CODE   S=DSO_TEXT       G=(none)  M=DSO.ASM    ACBP=48
 1A42:0004 008C C=CODE   S=CT_TEXT        G=(none)  M=SBCRWIO.ASM ACBP=48
 1A42:0090 0056 C=CODE   S=CT_TEXT        G=(none)  M=VECTOR.ASM ACBP=48
 1A42:00E6 010C C=CODE   S=CT_TEXT        G=(none)  M=SCANINT.ASM ACBP=48
 1A42:01F2 002E C=CODE   S=CT_TEXT        G=(none)  M=scancard.ASM ACBP=48
 1A42:0220 0177 C=CODE   S=CT_TEXT        G=(none)  M=cardhere.ASM ACBP=48
 1A42:0398 002F C=CODE   S=CT_TEXT        G=(none)  M=dspreset.ASM ACBP=48
 1A42:03C8 00CC C=CODE   S=CT_TEXT        G=(none)  M=CTVMASM.ASM ACBP=48
 1A8C:0000 09BD C=CODE   S=CTVM_DRV_SEG   G=(none)  M=CTVMEM.ASM ACBP=68
 1B27:000D 08E6 C=CODE   S=_OVRTEXT_      G=(none)  M=OVRMAN     ACBP=28
 1B27:08F3 005B C=CODE   S=_OVRTEXT_      G=(none)  M=OVRUSER    ACBP=28
 1B27:094E 0002 C=CODE   S=_OVRTEXT_      G=(none)  M=OVRDATA    ACBP=28
 1BBC:0000 0000 C=FAR_DATA S=_FARDATA       G=(none)  M=c0.ASM     ACBP=68
 1BBC:0000 0000 C=FAR_BSS S=_FARBSS        G=(none)  M=c0.ASM     ACBP=68
 1BBC:0000 0000 C=OVRINFO S=_OVERLAY_      G=(none)  M=c0.ASM     ACBP=68
 1BBC:0000 0007 C=OVRINFO S=_OVRDATA_      G=_OVRGROUP_ M=OVRMAN     ACBP=68
 1BBC:0010 0000 C=OVRINFO S=_OVRDATA_      G=_OVRGROUP_ M=OVRUSER    ACBP=68
 1BBC:0010 008C C=OVRINFO S=_OVRDATA_      G=_OVRGROUP_ M=OVRDATA    ACBP=68
 1BBC:00A0 0000 C=OVRINFO S=_STUB_         G=_OVRGROUP_ M=OVRMAN     ACBP=68
 1BBC:00A0 0000 C=OVRINFO S=_STUB_         G=_OVRGROUP_ M=OVRUSER    ACBP=68
 1BBC:00A0 001E C=OVRINFO S=_STUB_         G=_OVRGROUP_ M=OVRDATA    ACBP=68
 1BBC:00C0 0000 C=OVRINFO S=_EXTSEG_       G=_OVRGROUP_ M=OVRMAN     ACBP=68
 1BBC:00C0 0000 C=OVRINFO S=_EXTSEG_       G=_OVRGROUP_ M=OVRUSER    ACBP=68
 1BBC:00C0 0000 C=OVRINFO S=_EXTSEG_       G=_OVRGROUP_ M=OVRDATA    ACBP=68
 1BBC:00C0 0000 C=OVRINFO S=_EMSSEG_       G=_OVRGROUP_ M=OVRMAN     ACBP=68
 1BBC:00C0 0000 C=OVRINFO S=_EMSSEG_       G=_OVRGROUP_ M=OVRUSER    ACBP=68
 1BBC:00C0 0000 C=OVRINFO S=_EMSSEG_       G=_OVRGROUP_ M=OVRDATA    ACBP=68
 1BBC:00C0 0000 C=OVRINFO S=_VDISKSEG_     G=_OVRGROUP_ M=OVRMAN     ACBP=68
 1BBC:00C0 0000 C=OVRINFO S=_VDISKSEG_     G=_OVRGROUP_ M=OVRUSER    ACBP=68
 1BBC:00C0 0000 C=OVRINFO S=_VDISKSEG_     G=_OVRGROUP_ M=OVRDATA    ACBP=68
 1BBC:00C0 0000 C=OVRINFO S=_EXEINFO_      G=_OVRGROUP_ M=OVRMAN     ACBP=68
 1BBC:00C0 0000 C=OVRINFO S=_EXEINFO_      G=_OVRGROUP_ M=OVRUSER    ACBP=68
 1BBC:00C0 0000 C=OVRINFO S=_EXEINFO_      G=_OVRGROUP_ M=OVRDATA    ACBP=68
 1BBC:00C0 02E8 C=OVRINFO S=_EXEINFO_      G=_OVRGROUP_ M=OVRINFO    ACBP=68
 1BF7:0000 0000 C=STUBSEG S=_1STUB_        G=(none)  M=c0.ASM     ACBP=68
 1BF7:0000 0000 C=STUBSEG S=_1STUB_        G=(none)  M=OVRDATA    ACBP=28
 1BF7:0000 005C C=STUBSEG S=ENDSEQ_TEXT    G=(none)  M=ENDSEQ.C   ACBP=60
 1BFD:0000 005C C=STUBSEG S=LOADG_TEXT     G=(none)  M=LOADG.C    ACBP=60
 1C03:0000 00F7 C=STUBSEG S=GOB2_TEXT      G=(none)  M=GOB2.C     ACBP=60
 1C13:0000 0093 C=STUBSEG S=DEATH_TEXT     G=(none)  M=DEATH.C    ACBP=60
 1C1D:0000 0043 C=STUBSEG S=TORTURE1_TEXT  G=(none)  M=TORTURE1.C ACBP=60
 1C22:0000 002A C=STUBSEG S=REQ1_TEXT      G=(none)  M=REQ1.C     ACBP=60
 1C25:0000 002A C=STUBSEG S=INTRO1_TEXT    G=(none)  M=INTRO1.C   ACBP=60
 1C28:0000 0160 C=STUBSEG S=A1_TEXT        G=(none)  M=A1.C       ACBP=60
 1C3E:0000 0093 C=STUBSEG S=SPID1_TEXT     G=(none)  M=SPID1.C    ACBP=60
 1C48:0000 0057 C=STUBSEG S=GOOD1_TEXT     G=(none)  M=GOOD1.C    ACBP=60
 1C4E:0000 0052 C=STUBSEG S=ROOMS_TEXT     G=(none)  M=ROOMS.C    ACBP=60
 1C54:0000 0052 C=STUBSEG S=TOMB1_TEXT     G=(none)  M=TOMB1.C    ACBP=60
 1C5A:0000 004D C=STUBSEG S=CREATURE_TEXT  G=(none)  M=CREATURE.C ACBP=60
 1C5F:0000 012E C=STUBSEG S=A2_TEXT        G=(none)  M=A2.C       ACBP=60
 1C72:0000 0057 C=STUBSEG S=DARK1_TEXT     G=(none)  M=DARK1.C    ACBP=60
 1C78:0000 003E C=STUBSEG S=REALDARK_TEXT  G=(none)  M=REALDARK.C ACBP=60
 1C7C:0000 006B C=STUBSEG S=DRAGON1_TEXT   G=(none)  M=DRAGON1.C  ACBP=60
 1C83:0000 008E C=STUBSEG S=WITCH1_TEXT    G=(none)  M=WITCH1.C   ACBP=60
 1C8C:0000 00B1 C=STUBSEG S=SKULL1_TEXT    G=(none)  M=SKULL1.C   ACBP=60
 1C98:0000 00C0 C=STUBSEG S=LAVA1_TEXT     G=(none)  M=LAVA1.C    ACBP=60
 1CA4:0000 0057 C=STUBSEG S=SAC1_TEXT      G=(none)  M=SAC1.C     ACBP=60
 1CAA:0000 00E8 C=STUBSEG S=FROG1_TEXT     G=(none)  M=FROG1.C    ACBP=60
 1CB9:0000 009D C=STUBSEG S=SOL1_TEXT      G=(none)  M=SOL1.C     ACBP=60
 1CC3:0000 0061 C=STUBSEG S=HOUR1_TEXT     G=(none)  M=HOUR1.C    ACBP=60
 1CCA:0000 0165 C=STUBSEG S=MAC1_TEXT      G=(none)  M=MAC1.C     ACBP=60
 1CE1:0000 0070 C=STUBSEG S=SIREN1_TEXT    G=(none)  M=SIREN1.C   ACBP=60
 1CE8:0000 0052 C=STUBSEG S=LASER1_TEXT    G=(none)  M=LASER1.C   ACBP=60
 1CEE:0000 00CF C=STUBSEG S=ARENA5_TEXT    G=(none)  M=ARENA5.C   ACBP=60
 1CFB:0000 00A7 C=STUBSEG S=BAR1_TEXT      G=(none)  M=BAR1.C     ACBP=60
 1D06:0000 00D4 C=STUBSEG S=BUB1_TEXT      G=(none)  M=BUB1.C     ACBP=60
 1D14:0000 0034 C=STUBSEG S=DISC_TEXT      G=(none)  M=DISC.C     ACBP=60
 1D18:0000 0061 C=STUBSEG S=CHESS1_TEXT    G=(none)  M=CHESS1.C   ACBP=60
 1D1F:0000 00A2 C=STUBSEG S=DEMON1_TEXT    G=(none)  M=DEMON1.C   ACBP=60
 1D2A:0000 004D C=STUBSEG S=GARDEN1_TEXT   G=(none)  M=GARDEN1.C  ACBP=60
 1D2F:0000 006B C=STUBSEG S=MED1_TEXT      G=(none)  M=MED1.C     ACBP=60
 1D36:0000 00F2 C=STUBSEG S=ROD1_TEXT      G=(none)  M=ROD1.C     ACBP=60
 1D46:0000 01BA C=STUBSEG S=TUNOBJS_TEXT   G=(none)  M=TUNOBJS.C  ACBP=60
 1D62:0000 0151 C=STUBSEG S=ENT_TEXT       G=(none)  M=ENT.C      ACBP=60
 1D78:0000 0034 C=STUBSEG S=SOUL1_TEXT     G=(none)  M=SOUL1.C    ACBP=60
 1D7C:0000 00F2 C=STUBSEG S=EXIT_TEXT      G=(none)  M=EXIT.C     ACBP=60
 1D8C:0000 006B C=STUBSEG S=SWAMP1_TEXT    G=(none)  M=SWAMP1.C   ACBP=60
 1D93:0000 004D C=STUBSEG S=MEMORY_TEXT    G=(none)  M=MEMORY.C   ACBP=60
 1D98:0000 0093 C=DATA   S=_DATA          G=DGROUP  M=c0.ASM     ACBP=68
 1D98:0094 019F C=DATA   S=_DATA          G=DGROUP  M=LEVEL31.C  ACBP=48
 1D98:0234 0012 C=DATA   S=_DATA          G=DGROUP  M=ENDSEQ.C   ACBP=48
 1D98:0246 1205 C=DATA   S=_DATA          G=DGROUP  M=SOUNDSYS.C ACBP=48
 1D98:144C 027F C=DATA   S=_DATA          G=DGROUP  M=LOADG.C    ACBP=48
 1D98:16CC 0000 C=DATA   S=_DATA          G=DGROUP  M=LISTS.C    ACBP=48
 1D98:16CC 02DA C=DATA   S=_DATA          G=DGROUP  M=GOB2.C     ACBP=48
 1D98:19A6 00D2 C=DATA   S=_DATA          G=DGROUP  M=DEATH.C    ACBP=48
 1D98:1A78 001E C=DATA   S=_DATA          G=DGROUP  M=TORTURE1.C ACBP=48
 1D98:1A96 0014 C=DATA   S=_DATA          G=DGROUP  M=REQ1.C     ACBP=48
 1D98:1AAA 0016 C=DATA   S=_DATA          G=DGROUP  M=INTRO1.C   ACBP=48
 1D98:1AC0 01AC C=DATA   S=_DATA          G=DGROUP  M=A1.C       ACBP=48
 1D98:1C6C 0086 C=DATA   S=_DATA          G=DGROUP  M=SPID1.C    ACBP=48
 1D98:1CF2 0031 C=DATA   S=_DATA          G=DGROUP  M=GOOD1.C    ACBP=48
 1D98:1D24 0048 C=DATA   S=_DATA          G=DGROUP  M=ROOMS.C    ACBP=48
 1D98:1D6C 042A C=DATA   S=_DATA          G=DGROUP  M=TOMB1.C    ACBP=48
 1D98:2196 000C C=DATA   S=_DATA          G=DGROUP  M=CREATURE.C ACBP=48
 1D98:21A2 0186 C=DATA   S=_DATA          G=DGROUP  M=A2.C       ACBP=48
 1D98:2328 0256 C=DATA   S=_DATA          G=DGROUP  M=DARK1.C    ACBP=48
 1D98:257E 02B2 C=DATA   S=_DATA          G=DGROUP  M=REALDARK.C ACBP=48
 1D98:2830 0060 C=DATA   S=_DATA          G=DGROUP  M=DRAGON1.C  ACBP=48
 1D98:2890 0095 C=DATA   S=_DATA          G=DGROUP  M=WITCH1.C   ACBP=48
 1D98:2926 002C C=DATA   S=_DATA          G=DGROUP  M=SKULL1.C   ACBP=48
 1D98:2952 00F4 C=DATA   S=_DATA          G=DGROUP  M=LAVA1.C    ACBP=48
 1D98:2A46 002D C=DATA   S=_DATA          G=DGROUP  M=SAC1.C     ACBP=48
 1D98:2A74 01A8 C=DATA   S=_DATA          G=DGROUP  M=FROG1.C    ACBP=48
 1D98:2C1C 010C C=DATA   S=_DATA          G=DGROUP  M=SOL1.C     ACBP=48
 1D98:2D28 001E C=DATA   S=_DATA          G=DGROUP  M=HOUR1.C    ACBP=48
 1D98:2D46 00FA C=DATA   S=_DATA          G=DGROUP  M=MAC1.C     ACBP=48
 1D98:2E40 00A0 C=DATA   S=_DATA          G=DGROUP  M=SIREN1.C   ACBP=48
 1D98:2EE0 010B C=DATA   S=_DATA          G=DGROUP  M=LASER1.C   ACBP=48
 1D98:2FEC 005A C=DATA   S=_DATA          G=DGROUP  M=ARENA5.C   ACBP=48
 1D98:3046 0084 C=DATA   S=_DATA          G=DGROUP  M=BAR1.C     ACBP=48
 1D98:30CA 00B0 C=DATA   S=_DATA          G=DGROUP  M=BUB1.C     ACBP=48
 1D98:317A 00D4 C=DATA   S=_DATA          G=DGROUP  M=DISC.C     ACBP=48
 1D98:324E 007E C=DATA   S=_DATA          G=DGROUP  M=CHESS1.C   ACBP=48
 1D98:32CC 00AF C=DATA   S=_DATA          G=DGROUP  M=DEMON1.C   ACBP=48
 1D98:337C 01C4 C=DATA   S=_DATA          G=DGROUP  M=GARDEN1.C  ACBP=48
 1D98:3540 0084 C=DATA   S=_DATA          G=DGROUP  M=MED1.C     ACBP=48
 1D98:35C4 00B6 C=DATA   S=_DATA          G=DGROUP  M=ROD1.C     ACBP=48
 1D98:367A 0028 C=DATA   S=_DATA          G=DGROUP  M=FRONTEND.C ACBP=48
 1D98:36A2 04BF C=DATA   S=_DATA          G=DGROUP  M=TUNOBJS.C  ACBP=48
 1D98:3B62 04F6 C=DATA   S=_DATA          G=DGROUP  M=NEWMAIN.C  ACBP=48
 1D98:4058 01E4 C=DATA   S=_DATA          G=DGROUP  M=ENT.C      ACBP=48
 1D98:423C 0096 C=DATA   S=_DATA          G=DGROUP  M=SOUL1.C    ACBP=48
 1D98:42D2 017E C=DATA   S=_DATA          G=DGROUP  M=EXIT.C     ACBP=48
 1D98:4450 00B0 C=DATA   S=_DATA          G=DGROUP  M=SWAMP1.C   ACBP=48
 1D98:4500 0014 C=DATA   S=_DATA          G=DGROUP  M=BLASTER.C  ACBP=48
 1D98:4514 02E6 C=DATA   S=_DATA          G=DGROUP  M=TUNNELS.C  ACBP=48
 1D98:47FA 016D C=DATA   S=_DATA          G=DGROUP  M=INPUT.C    ACBP=48
 1D98:4968 0435 C=DATA   S=_DATA          G=DGROUP  M=LOADDSO.C  ACBP=48
 1D98:4D9E 0030 C=DATA   S=_DATA          G=DGROUP  M=GFXSYS.C   ACBP=48
 1D98:4DCE 00B4 C=DATA   S=_DATA          G=DGROUP  M=ANIM.C     ACBP=48
 1D98:4E82 000C C=DATA   S=_DATA          G=DGROUP  M=MEMORY.C   ACBP=48
 1D98:4E8E 0005 C=DATA   S=_DATA          G=DGROUP  M=RANDOM.C   ACBP=48
 1D98:4E94 0004 C=DATA   S=_DATA          G=DGROUP  M=EMM.C      ACBP=48
 1D98:4E98 0004 C=DATA   S=_DATA          G=DGROUP  M=SCROOL.C   ACBP=48
 1D98:4E9C 029A C=DATA   S=_DATA          G=DGROUP  M=OBJECTS.C  ACBP=48
 1D98:5136 0007 C=DATA   S=_DATA          G=DGROUP  M=MODE256.ASM ACBP=48
 1D98:513E 001B C=DATA   S=_DATA          G=DGROUP  M=timeasm.ASM ACBP=48
 1D98:515A 0166 C=DATA   S=_DATA          G=DGROUP  M=KEYINT.ASM ACBP=48
 1D98:52C0 001E C=DATA   S=_DATA          G=DGROUP  M=TILEASM.ASM ACBP=48
 1D98:52DE 0000 C=DATA   S=_DATA          G=DGROUP  M=showpic.ASM ACBP=48
 1D98:52DE 01B4 C=DATA   S=_DATA          G=DGROUP  M=graphics.ASM ACBP=48
 1D98:5492 001A C=DATA   S=_DATA          G=DGROUP  M=PRINT.ASM  ACBP=48
 1D98:54AC 120C C=DATA   S=_DATA          G=DGROUP  M=COLOUR.ASM ACBP=48
 1D98:66B8 004E C=DATA   S=_DATA          G=DGROUP  M=DSO.ASM    ACBP=48
 1D98:6706 0000 C=DATA   S=_DATA          G=DGROUP  M=SBCRWIO.ASM ACBP=48
 1D98:6706 0000 C=DATA   S=_DATA          G=DGROUP  M=VECTOR.ASM ACBP=48
 1D98:6706 0001 C=DATA   S=_DATA          G=DGROUP  M=SCANINT.ASM ACBP=48
 1D98:6708 0000 C=DATA   S=_DATA          G=DGROUP  M=scancard.ASM ACBP=48
 1D98:6708 0002 C=DATA   S=_DATA          G=DGROUP  M=vocdata.ASM ACBP=48
 1D98:670A 0004 C=DATA   S=_DATA          G=DGROUP  M=sbcdata.ASM ACBP=48
 1D98:670E 0004 C=DATA   S=_DATA          G=DGROUP  M=cardhere.ASM ACBP=48
 1D98:6712 0000 C=DATA   S=_DATA          G=DGROUP  M=dspreset.ASM ACBP=48
 1D98:6712 0000 C=DATA   S=_DATA          G=DGROUP  M=CTVMASM.ASM ACBP=48
 1D98:6712 0000 C=DATA   S=_DATA          G=DGROUP  M=OVRMAN     ACBP=48
 1D98:6712 0000 C=DATA   S=_DATA          G=DGROUP  M=OVRUSER    ACBP=48
 1D98:6712 0000 C=DATA   S=_DATA          G=DGROUP  M=OVRHALT    ACBP=48
 1D98:6712 0004 C=DATA   S=_DATA          G=DGROUP  M=OVRDATA    ACBP=48
 1D98:6716 0002 C=DATA   S=_DATA          G=DGROUP  M=ATEXIT     ACBP=48
 1D98:6718 0101 C=DATA   S=_DATA          G=DGROUP  M=CTYPE      ACBP=48
 1D98:681A 0000 C=DATA   S=_DATA          G=DGROUP  M=DOSFATTR   ACBP=48
 1D98:681A 0000 C=DATA   S=_DATA          G=DGROUP  M=DOSGDRIV   ACBP=48
 1D98:681A 000C C=DATA   S=_DATA          G=DGROUP  M=EXIT       ACBP=48
 1D98:6826 0190 C=DATA   S=_DATA          G=DGROUP  M=FILES      ACBP=48
 1D98:69B6 002A C=DATA   S=_DATA          G=DGROUP  M=FILES2     ACBP=48
 1D98:69E0 0004 C=DATA   S=_DATA          G=DGROUP  M=FMODE      ACBP=48
 1D98:69E4 0000 C=DATA   S=_DATA          G=DGROUP  M=GETDATE    ACBP=48
 1D98:69E4 0000 C=DATA   S=_DATA          G=DGROUP  M=GETDISK    ACBP=48
 1D98:69E4 0000 C=DATA   S=_DATA          G=DGROUP  M=GETFAT     ACBP=48
 1D98:69E4 0000 C=DATA   S=_DATA          G=DGROUP  M=H_LDIV     ACBP=48
 1D98:69E4 0000 C=DATA   S=_DATA          G=DGROUP  M=H_LLSH     ACBP=48
 1D98:69E4 0000 C=DATA   S=_DATA          G=DGROUP  M=H_PADD     ACBP=48
 1D98:69E4 0000 C=DATA   S=_DATA          G=DGROUP  M=H_PSBP     ACBP=48
 1D98:69E4 005B C=DATA   S=_DATA          G=DGROUP  M=IOERROR    ACBP=48
 1D98:6A40 0000 C=DATA   S=_DATA          G=DGROUP  M=ISATTY     ACBP=48
 1D98:6A40 0000 C=DATA   S=_DATA          G=DGROUP  M=LONGTOA    ACBP=48
 1D98:6A40 0000 C=DATA   S=_DATA          G=DGROUP  M=LSEEK      ACBP=48
 1D98:6A40 0009 C=DATA   S=_DATA          G=DGROUP  M=MKNAME     ACBP=48
 1D98:6A4A 0000 C=DATA   S=_DATA          G=DGROUP  M=N_LXMUL    ACBP=48
 1D98:6A4A 0000 C=DATA   S=_DATA          G=DGROUP  M=N_PCMP     ACBP=48
 1D98:6A4A 0004 C=DATA   S=_DATA          G=DGROUP  M=RAND       ACBP=48
 1D98:6A4E 0000 C=DATA   S=_DATA          G=DGROUP  M=READA      ACBP=48
 1D98:6A4E 0000 C=DATA   S=_DATA          G=DGROUP  M=SEGREAD    ACBP=48
 1D98:6A4E 0000 C=DATA   S=_DATA          G=DGROUP  M=SETDATE    ACBP=48
 1D98:6A4E 0000 C=DATA   S=_DATA          G=DGROUP  M=SETUPIO    ACBP=48
 1D98:6A4E 0000 C=DATA   S=_DATA          G=DGROUP  M=STIME      ACBP=48
 1D98:6A4E 0002 C=DATA   S=_DATA          G=DGROUP  M=STKLEN     ACBP=48
 1D98:6A50 0000 C=DATA   S=_DATA          G=DGROUP  M=UNLINK     ACBP=48
 1D98:6A50 0067 C=DATA   S=_DATA          G=DGROUP  M=VPRINTER   ACBP=48
 1D98:6AB8 0000 C=DATA   S=_DATA          G=DGROUP  M=_STPCPY    ACBP=48
 1D98:6AB8 0000 C=DATA   S=_DATA          G=DGROUP  M=CORELEFT   ACBP=48
 1D98:6AB8 0031 C=DATA   S=_DATA          G=DGROUP  M=CVTFAK     ACBP=48
 1D98:6AEA 0004 C=DATA   S=_DATA          G=DGROUP  M=DELAY      ACBP=48
 1D98:6AEE 0000 C=DATA   S=_DATA          G=DGROUP  M=FARHEAP    ACBP=48
 1D98:6AEE 0002 C=DATA   S=_DATA          G=DGROUP  M=FBRK       ACBP=48
 1D98:6AF0 0000 C=DATA   S=_DATA          G=DGROUP  M=FCORELFT   ACBP=48
 1D98:6AF0 0000 C=DATA   S=_DATA          G=DGROUP  M=INT86      ACBP=48
 1D98:6AF0 0000 C=DATA   S=_DATA          G=DGROUP  M=IOCTL      ACBP=48
 1D98:6AF0 0000 C=DATA   S=_DATA          G=DGROUP  M=REALCVT    ACBP=48
 1D98:6AF0 0010 C=DATA   S=_DATA          G=DGROUP  M=SETARGV    ACBP=48
 1D98:6B00 0000 C=DATA   S=_DATA          G=DGROUP  M=SETBLOCK   ACBP=48
 1D98:6B00 0004 C=DATA   S=_DATA          G=DGROUP  M=SETENVP    ACBP=48
 1D98:6B04 0000 C=DATA   S=_DATA          G=DGROUP  M=ATOL       ACBP=48
 1D98:6B04 0000 C=DATA   S=_DATA          G=DGROUP  M=CHMODA     ACBP=48
 1D98:6B04 0000 C=DATA   S=_DATA          G=DGROUP  M=CLOSE      ACBP=48
 1D98:6B04 0000 C=DATA   S=_DATA          G=DGROUP  M=CLOSEA     ACBP=48
 1D98:6B04 0000 C=DATA   S=_DATA          G=DGROUP  M=EOF        ACBP=48
 1D98:6B04 0000 C=DATA   S=_DATA          G=DGROUP  M=FCLOSE     ACBP=48
 1D98:6B04 0000 C=DATA   S=_DATA          G=DGROUP  M=FFLUSH     ACBP=48
 1D98:6B04 0000 C=DATA   S=_DATA          G=DGROUP  M=FINDFIRS   ACBP=48
 1D98:6B04 0000 C=DATA   S=_DATA          G=DGROUP  M=FLENGTH    ACBP=48
 1D98:6B04 0000 C=DATA   S=_DATA          G=DGROUP  M=FLUSHALL   ACBP=48
 1D98:6B04 0000 C=DATA   S=_DATA          G=DGROUP  M=FOPEN      ACBP=48
 1D98:6B04 0000 C=DATA   S=_DATA          G=DGROUP  M=FREAD      ACBP=48
 1D98:6B04 0000 C=DATA   S=_DATA          G=DGROUP  M=FSEEK      ACBP=48
 1D98:6B04 0000 C=DATA   S=_DATA          G=DGROUP  M=FWRITE     ACBP=48
 1D98:6B04 0000 C=DATA   S=_DATA          G=DGROUP  M=GETC       ACBP=48
 1D98:6B04 0000 C=DATA   S=_DATA          G=DGROUP  M=GETENV     ACBP=48
 1D98:6B04 0000 C=DATA   S=_DATA          G=DGROUP  M=LTOA1      ACBP=48
 1D98:6B04 0000 C=DATA   S=_DATA          G=DGROUP  M=MEMCPY     ACBP=48
 1D98:6B04 0000 C=DATA   S=_DATA          G=DGROUP  M=MEMSET     ACBP=48
 1D98:6B04 0000 C=DATA   S=_DATA          G=DGROUP  M=MOVMEM     ACBP=48
 1D98:6B04 0000 C=DATA   S=_DATA          G=DGROUP  M=OPEN       ACBP=48
 1D98:6B04 0000 C=DATA   S=_DATA          G=DGROUP  M=OPENA      ACBP=48
 1D98:6B04 0000 C=DATA   S=_DATA          G=DGROUP  M=PRINTF     ACBP=48
 1D98:6B04 0001 C=DATA   S=_DATA          G=DGROUP  M=PUTC       ACBP=48
 1D98:6B06 0000 C=DATA   S=_DATA          G=DGROUP  M=READ       ACBP=48
 1D98:6B06 0004 C=DATA   S=_DATA          G=DGROUP  M=SETVBUF    ACBP=48
 1D98:6B0A 0000 C=DATA   S=_DATA          G=DGROUP  M=STRCAT     ACBP=48
 1D98:6B0A 0000 C=DATA   S=_DATA          G=DGROUP  M=STRCHR     ACBP=48
 1D98:6B0A 0000 C=DATA   S=_DATA          G=DGROUP  M=STRCPY     ACBP=48
 1D98:6B0A 0000 C=DATA   S=_DATA          G=DGROUP  M=STRLEN     ACBP=48
 1D98:6B0A 0000 C=DATA   S=_DATA          G=DGROUP  M=STRNCPY    ACBP=48
 1D98:6B0A 000C C=DATA   S=_DATA          G=DGROUP  M=TIMECVT    ACBP=48
 1D98:6B16 0033 C=DATA   S=_DATA          G=DGROUP  M=TZSET      ACBP=48
 1D98:6B4A 0000 C=DATA   S=_DATA          G=DGROUP  M=WRITE      ACBP=48
 1D98:6B4A 0000 C=DATA   S=_DATA          G=DGROUP  M=WRITEA     ACBP=48
 1D98:6B4A 0000 C=DATA   S=_DATA          G=DGROUP  M=XFCLOSE    ACBP=48
 1D98:6B4A 0000 C=DATA   S=_DATA          G=DGROUP  M=XFFLUSH    ACBP=48
 1D98:6B4A 0000 C=DATA   S=_CVTSEG        G=DGROUP  M=c0.ASM     ACBP=48
 1D98:6B4A 0002 C=DATA   S=_CVTSEG        G=DGROUP  M=CVTFAK     ACBP=48
 1D98:6B4C 0000 C=DATA   S=_CVTSEG        G=DGROUP  M=REALCVT    ACBP=48
 1D98:6B4C 0000 C=DATA   S=_SCNSEG        G=DGROUP  M=c0.ASM     ACBP=48
 1D98:6B4C 0006 C=DATA   S=_SCNSEG        G=DGROUP  M=CVTFAK     ACBP=48
 1D98:6B52 0000 C=CONST  S=_CONST         G=DGROUP  M=c0.ASM     ACBP=48
 1D98:6B52 0000 C=INITDATA S=_INIT_         G=DGROUP  M=c0.ASM     ACBP=48
 1D98:6B52 0006 C=INITDATA S=_INIT_         G=DGROUP  M=OVRUSER    ACBP=48
 1D98:6B58 0006 C=INITDATA S=_INIT_         G=DGROUP  M=SETUPIO    ACBP=48
 1D98:6B5E 0006 C=INITDATA S=_INIT_         G=DGROUP  M=DELAY      ACBP=48
 1D98:6B64 0006 C=INITDATA S=_INIT_         G=DGROUP  M=SETARGV    ACBP=48
 1D98:6B6A 0006 C=INITDATA S=_INIT_         G=DGROUP  M=SETENVP    ACBP=48
 1D98:6B70 0006 C=INITDATA S=_INIT_         G=DGROUP  M=TZSET      ACBP=48
 1D98:6B76 0000 C=INITDATA S=_INITEND_      G=DGROUP  M=c0.ASM     ACBP=28
 1D98:6B76 0000 C=EXITDATA S=_EXIT_         G=DGROUP  M=c0.ASM     ACBP=48
 1D98:6B76 0006 C=EXITDATA S=_EXIT_         G=DGROUP  M=OVRUSER    ACBP=48
 1D98:6B7C 0000 C=EXITDATA S=_EXITEND_      G=DGROUP  M=c0.ASM     ACBP=28
 1D98:6B7C 0000 C=BSS    S=_BSS           G=DGROUP  M=c0.ASM     ACBP=48
 1D98:6B7C 066D C=BSS    S=_BSS           G=DGROUP  M=LEVEL31.C  ACBP=48
 1D98:71EA 007A C=BSS    S=_BSS           G=DGROUP  M=ENDSEQ.C   ACBP=48
 1D98:7264 014A C=BSS    S=_BSS           G=DGROUP  M=SOUNDSYS.C ACBP=48
 1D98:73AE 009D C=BSS    S=_BSS           G=DGROUP  M=LOADG.C    ACBP=48
 1D98:744C 0000 C=BSS    S=_BSS           G=DGROUP  M=LISTS.C    ACBP=48
 1D98:744C 02BA C=BSS    S=_BSS           G=DGROUP  M=GOB2.C     ACBP=48
 1D98:7706 00B4 C=BSS    S=_BSS           G=DGROUP  M=DEATH.C    ACBP=48
 1D98:77BA 0088 C=BSS    S=_BSS           G=DGROUP  M=TORTURE1.C ACBP=48
 1D98:7842 0020 C=BSS    S=_BSS           G=DGROUP  M=REQ1.C     ACBP=48
 1D98:7862 024E C=BSS    S=_BSS           G=DGROUP  M=INTRO1.C   ACBP=48
 1D98:7AB0 0034 C=BSS    S=_BSS           G=DGROUP  M=A1.C       ACBP=48
 1D98:7AE4 02D0 C=BSS    S=_BSS           G=DGROUP  M=SPID1.C    ACBP=48
 1D98:7DB4 01A2 C=BSS    S=_BSS           G=DGROUP  M=GOOD1.C    ACBP=48
 1D98:7F56 00E2 C=BSS    S=_BSS           G=DGROUP  M=ROOMS.C    ACBP=48
 1D98:8038 00A1 C=BSS    S=_BSS           G=DGROUP  M=TOMB1.C    ACBP=48
 1D98:80DA 0068 C=BSS    S=_BSS           G=DGROUP  M=CREATURE.C ACBP=48
 1D98:8142 003A C=BSS    S=_BSS           G=DGROUP  M=A2.C       ACBP=48
 1D98:817C 0087 C=BSS    S=_BSS           G=DGROUP  M=DARK1.C    ACBP=48
 1D98:8204 009D C=BSS    S=_BSS           G=DGROUP  M=REALDARK.C ACBP=48
 1D98:82A2 00C8 C=BSS    S=_BSS           G=DGROUP  M=DRAGON1.C  ACBP=48
 1D98:836A 0143 C=BSS    S=_BSS           G=DGROUP  M=WITCH1.C   ACBP=48
 1D98:84AE 00BE C=BSS    S=_BSS           G=DGROUP  M=SKULL1.C   ACBP=48
 1D98:856C 050E C=BSS    S=_BSS           G=DGROUP  M=LAVA1.C    ACBP=48
 1D98:8A7A 00A8 C=BSS    S=_BSS           G=DGROUP  M=SAC1.C     ACBP=48
 1D98:8B22 05DC C=BSS    S=_BSS           G=DGROUP  M=FROG1.C    ACBP=48
 1D98:90FE 012E C=BSS    S=_BSS           G=DGROUP  M=SOL1.C     ACBP=48
 1D98:922C 00B4 C=BSS    S=_BSS           G=DGROUP  M=HOUR1.C    ACBP=48
 1D98:92E0 0154 C=BSS    S=_BSS           G=DGROUP  M=MAC1.C     ACBP=48
 1D98:9434 0143 C=BSS    S=_BSS           G=DGROUP  M=SIREN1.C   ACBP=48
 1D98:9578 007F C=BSS    S=_BSS           G=DGROUP  M=LASER1.C   ACBP=48
 1D98:95F8 00D2 C=BSS    S=_BSS           G=DGROUP  M=ARENA5.C   ACBP=48
 1D98:96CA 0174 C=BSS    S=_BSS           G=DGROUP  M=BAR1.C     ACBP=48
 1D98:983E 09B0 C=BSS    S=_BSS           G=DGROUP  M=BUB1.C     ACBP=48
 1D98:A1EE 0018 C=BSS    S=_BSS           G=DGROUP  M=DISC.C     ACBP=48
 1D98:A206 0085 C=BSS    S=_BSS           G=DGROUP  M=CHESS1.C   ACBP=48
 1D98:A28C 00F1 C=BSS    S=_BSS           G=DGROUP  M=DEMON1.C   ACBP=48
 1D98:A37E 00DD C=BSS    S=_BSS           G=DGROUP  M=GARDEN1.C  ACBP=48
 1D98:A45C 00EE C=BSS    S=_BSS           G=DGROUP  M=MED1.C     ACBP=48
 1D98:A54A 015C C=BSS    S=_BSS           G=DGROUP  M=ROD1.C     ACBP=48
 1D98:A6A6 000D C=BSS    S=_BSS           G=DGROUP  M=FRONTEND.C ACBP=48
 1D98:A6B4 11CD C=BSS    S=_BSS           G=DGROUP  M=TUNOBJS.C  ACBP=48
 1D98:B882 01E7 C=BSS    S=_BSS           G=DGROUP  M=NEWMAIN.C  ACBP=48
 1D98:BA6A 0058 C=BSS    S=_BSS           G=DGROUP  M=ENT.C      ACBP=48
 1D98:BAC2 006C C=BSS    S=_BSS           G=DGROUP  M=SOUL1.C    ACBP=48
 1D98:BB2E 003E C=BSS    S=_BSS           G=DGROUP  M=EXIT.C     ACBP=48
 1D98:BB6C 00B9 C=BSS    S=_BSS           G=DGROUP  M=SWAMP1.C   ACBP=48
 1D98:BC26 0000 C=BSS    S=_BSS           G=DGROUP  M=BLASTER.C  ACBP=48
 1D98:BC26 0278 C=BSS    S=_BSS           G=DGROUP  M=TUNNELS.C  ACBP=48
 1D98:BE9E 0018 C=BSS    S=_BSS           G=DGROUP  M=INPUT.C    ACBP=48
 1D98:BEB6 0008 C=BSS    S=_BSS           G=DGROUP  M=LOADDSO.C  ACBP=48
 1D98:BEBE 000A C=BSS    S=_BSS           G=DGROUP  M=GFXSYS.C   ACBP=48
 1D98:BEC8 05A4 C=BSS    S=_BSS           G=DGROUP  M=ANIM.C     ACBP=48
 1D98:C46C 0808 C=BSS    S=_BSS           G=DGROUP  M=MEMORY.C   ACBP=48
 1D98:CC74 0000 C=BSS    S=_BSS           G=DGROUP  M=RANDOM.C   ACBP=48
 1D98:CC74 000E C=BSS    S=_BSS           G=DGROUP  M=EMM.C      ACBP=48
 1D98:CC82 0010 C=BSS    S=_BSS           G=DGROUP  M=SCROOL.C   ACBP=48
 1D98:CC92 044C C=BSS    S=_BSS           G=DGROUP  M=OBJECTS.C  ACBP=48
 1D98:D0DE 0000 C=BSS    S=_BSS           G=DGROUP  M=timeasm.ASM ACBP=48
 1D98:D0DE 0400 C=BSS    S=_BSS           G=DGROUP  M=graphics.ASM ACBP=48
 1D98:D4DE 017C C=BSS    S=_BSS           G=DGROUP  M=PRINT.ASM  ACBP=48
 1D98:D65A 0080 C=BSS    S=_BSS           G=DGROUP  M=ATEXIT     ACBP=48
 1D98:D6DA 0000 C=BSS    S=_BSS           G=DGROUP  M=DOSFATTR   ACBP=48
 1D98:D6DA 0000 C=BSS    S=_BSS           G=DGROUP  M=GETFAT     ACBP=48
 1D98:D6DA 0000 C=BSS    S=_BSS           G=DGROUP  M=IOERROR    ACBP=48
 1D98:D6DA 0000 C=BSS    S=_BSS           G=DGROUP  M=ISATTY     ACBP=48
 1D98:D6DA 0000 C=BSS    S=_BSS           G=DGROUP  M=LONGTOA    ACBP=48
 1D98:D6DA 0000 C=BSS    S=_BSS           G=DGROUP  M=LSEEK      ACBP=48
 1D98:D6DA 000D C=BSS    S=_BSS           G=DGROUP  M=MKNAME     ACBP=48
 1D98:D6E8 0000 C=BSS    S=_BSS           G=DGROUP  M=READA      ACBP=48
 1D98:D6E8 0000 C=BSS    S=_BSS           G=DGROUP  M=SEGREAD    ACBP=48
 1D98:D6E8 0000 C=BSS    S=_BSS           G=DGROUP  M=SETDATE    ACBP=48
 1D98:D6E8 0000 C=BSS    S=_BSS           G=DGROUP  M=SETUPIO    ACBP=48
 1D98:D6E8 0000 C=BSS    S=_BSS           G=DGROUP  M=UNLINK     ACBP=48
 1D98:D6E8 0000 C=BSS    S=_BSS           G=DGROUP  M=VPRINTER   ACBP=48
 1D98:D6E8 0000 C=BSS    S=_BSS           G=DGROUP  M=CORELEFT   ACBP=48
 1D98:D6E8 0000 C=BSS    S=_BSS           G=DGROUP  M=DELAY      ACBP=48
 1D98:D6E8 0000 C=BSS    S=_BSS           G=DGROUP  M=INT86      ACBP=48
 1D98:D6E8 0000 C=BSS    S=_BSS           G=DGROUP  M=IOCTL      ACBP=48
 1D98:D6E8 0000 C=BSS    S=_BSS           G=DGROUP  M=SETBLOCK   ACBP=48
 1D98:D6E8 0000 C=BSS    S=_BSS           G=DGROUP  M=ATOL       ACBP=48
 1D98:D6E8 0000 C=BSS    S=_BSS           G=DGROUP  M=CHMODA     ACBP=48
 1D98:D6E8 0000 C=BSS    S=_BSS           G=DGROUP  M=CLOSEA     ACBP=48
 1D98:D6E8 0000 C=BSS    S=_BSS           G=DGROUP  M=EOF        ACBP=48
 1D98:D6E8 0000 C=BSS    S=_BSS           G=DGROUP  M=FINDFIRS   ACBP=48
 1D98:D6E8 0000 C=BSS    S=_BSS           G=DGROUP  M=FLENGTH    ACBP=48
 1D98:D6E8 0000 C=BSS    S=_BSS           G=DGROUP  M=FREAD      ACBP=48
 1D98:D6E8 0000 C=BSS    S=_BSS           G=DGROUP  M=FWRITE     ACBP=48
 1D98:D6E8 0001 C=BSS    S=_BSS           G=DGROUP  M=GETC       ACBP=48
 1D98:D6EA 0000 C=BSS    S=_BSS           G=DGROUP  M=GETENV     ACBP=48
 1D98:D6EA 0000 C=BSS    S=_BSS           G=DGROUP  M=MEMCPY     ACBP=48
 1D98:D6EA 0000 C=BSS    S=_BSS           G=DGROUP  M=MEMSET     ACBP=48
 1D98:D6EA 0000 C=BSS    S=_BSS           G=DGROUP  M=MOVMEM     ACBP=48
 1D98:D6EA 0000 C=BSS    S=_BSS           G=DGROUP  M=OPEN       ACBP=48
 1D98:D6EA 0000 C=BSS    S=_BSS           G=DGROUP  M=OPENA      ACBP=48
 1D98:D6EA 0001 C=BSS    S=_BSS           G=DGROUP  M=PUTC       ACBP=48
 1D98:D6EC 0000 C=BSS    S=_BSS           G=DGROUP  M=READ       ACBP=48
 1D98:D6EC 0000 C=BSS    S=_BSS           G=DGROUP  M=STRCAT     ACBP=48
 1D98:D6EC 0000 C=BSS    S=_BSS           G=DGROUP  M=STRCHR     ACBP=48
 1D98:D6EC 0000 C=BSS    S=_BSS           G=DGROUP  M=STRCPY     ACBP=48
 1D98:D6EC 0000 C=BSS    S=_BSS           G=DGROUP  M=STRLEN     ACBP=48
 1D98:D6EC 0000 C=BSS    S=_BSS           G=DGROUP  M=STRNCPY    ACBP=48
 1D98:D6EC 0008 C=BSS    S=_BSS           G=DGROUP  M=TZSET      ACBP=48
 1D98:D6F4 0000 C=BSS    S=_BSS           G=DGROUP  M=WRITEA     ACBP=48
 1D98:D6F4 0000 C=BSSEND S=_BSSEND        G=DGROUP  M=c0.ASM     ACBP=28
 2B08:0000 0080 C=STACK  S=_STACK         G=(none)  M=c0.ASM     ACBP=74
 2B11:0000 0B7B C=:OVY   S=ENDSEQ_TEXT    G=(none)  M=ENDSEQ.C   ACBP=28
 2BD7:0000 18B3 C=:OVY   S=LOADG_TEXT     G=(none)  M=LOADG.C    ACBP=28
 2D74:0000 320F C=:OVY   S=GOB2_TEXT      G=(none)  M=GOB2.C     ACBP=28
 30AF:0000 2D12 C=:OVY   S=DEATH_TEXT     G=(none)  M=DEATH.C    ACBP=28
 3394:0000 0BC2 C=:OVY   S=TORTURE1_TEXT  G=(none)  M=TORTURE1.C ACBP=28
 345B:0000 052F C=:OVY   S=REQ1_TEXT      G=(none)  M=REQ1.C     ACBP=28
 34B3:0000 091E C=:OVY   S=INTRO1_TEXT    G=(none)  M=INTRO1.C   ACBP=28
 354F:0000 23DC C=:OVY   S=A1_TEXT        G=(none)  M=A1.C       ACBP=28
 37A2:0000 35FE C=:OVY   S=SPID1_TEXT     G=(none)  M=SPID1.C    ACBP=28
 3B18:0000 0EE1 C=:OVY   S=GOOD1_TEXT     G=(none)  M=GOOD1.C    ACBP=28
 3C10:0000 156E C=:OVY   S=ROOMS_TEXT     G=(none)  M=ROOMS.C    ACBP=28
 3D76:0000 1A38 C=:OVY   S=TOMB1_TEXT     G=(none)  M=TOMB1.C    ACBP=28
 3F2A:0000 11F9 C=:OVY   S=CREATURE_TEXT  G=(none)  M=CREATURE.C ACBP=28
 404E:0000 2376 C=:OVY   S=A2_TEXT        G=(none)  M=A2.C       ACBP=28
 4298:0000 0F7F C=:OVY   S=DARK1_TEXT     G=(none)  M=DARK1.C    ACBP=28
 439A:0000 131F C=:OVY   S=REALDARK_TEXT  G=(none)  M=REALDARK.C ACBP=28
 44D8:0000 1AD0 C=:OVY   S=DRAGON1_TEXT   G=(none)  M=DRAGON1.C  ACBP=28
 4698:0000 2810 C=:OVY   S=WITCH1_TEXT    G=(none)  M=WITCH1.C   ACBP=28
 4933:0000 270D C=:OVY   S=SKULL1_TEXT    G=(none)  M=SKULL1.C   ACBP=28
 4BB8:0000 1BA0 C=:OVY   S=LAVA1_TEXT     G=(none)  M=LAVA1.C    ACBP=28
 4D83:0000 1152 C=:OVY   S=SAC1_TEXT      G=(none)  M=SAC1.C     ACBP=28
 4EA6:0000 2DBE C=:OVY   S=FROG1_TEXT     G=(none)  M=FROG1.C    ACBP=28
 5199:0000 1D87 C=:OVY   S=SOL1_TEXT      G=(none)  M=SOL1.C     ACBP=28
 5383:0000 13C7 C=:OVY   S=HOUR1_TEXT     G=(none)  M=HOUR1.C    ACBP=28
 54CD:0000 2081 C=:OVY   S=MAC1_TEXT      G=(none)  M=MAC1.C     ACBP=28
 56EB:0000 2688 C=:OVY   S=SIREN1_TEXT    G=(none)  M=SIREN1.C   ACBP=28
 596E:0000 0F97 C=:OVY   S=LASER1_TEXT    G=(none)  M=LASER1.C   ACBP=28
 5A72:0000 20D8 C=:OVY   S=ARENA5_TEXT    G=(none)  M=ARENA5.C   ACBP=28
 5C96:0000 2EE2 C=:OVY   S=BAR1_TEXT      G=(none)  M=BAR1.C     ACBP=28
 5F9F:0000 2177 C=:OVY   S=BUB1_TEXT      G=(none)  M=BUB1.C     ACBP=28
 61C7:0000 04E9 C=:OVY   S=DISC_TEXT      G=(none)  M=DISC.C     ACBP=28
 621B:0000 163A C=:OVY   S=CHESS1_TEXT    G=(none)  M=CHESS1.C   ACBP=28
 638D:0000 1E03 C=:OVY   S=DEMON1_TEXT    G=(none)  M=DEMON1.C   ACBP=28
 657F:0000 19BE C=:OVY   S=GARDEN1_TEXT   G=(none)  M=GARDEN1.C  ACBP=28
 672A:0000 15E9 C=:OVY   S=MED1_TEXT      G=(none)  M=MED1.C     ACBP=28
 6894:0000 21F9 C=:OVY   S=ROD1_TEXT      G=(none)  M=ROD1.C     ACBP=28
 6ACF:0000 7DD8 C=:OVY   S=TUNOBJS_TEXT   G=(none)  M=TUNOBJS.C  ACBP=28
 72FE:0000 2606 C=:OVY   S=ENT_TEXT       G=(none)  M=ENT.C      ACBP=28
 7573:0000 078D C=:OVY   S=SOUL1_TEXT     G=(none)  M=SOUL1.C    ACBP=28
 75F3:0000 1B8B C=:OVY   S=EXIT_TEXT      G=(none)  M=EXIT.C     ACBP=28
 77BB:0000 15A7 C=:OVY   S=SWAMP1_TEXT    G=(none)  M=SWAMP1.C   ACBP=28
 7924:0000 0413 C=:OVY   S=MEMORY_TEXT    G=(none)  M=MEMORY.C   ACBP=28

  Address         Publics by Name

 1D98:54A6 idle  backptr
 1A8C:0000       CTVM_VOICE_DRV
 1D98:0000 idle  DATASEG@
 0000:0291 idle  DGROUP@
 1A42:00D0 idle  DISABLE_8259
 1A42:00B8 idle  ENABLE_8259
 0000:04AE idle  F_LDIV@
 0000:04BD idle  F_LMOD@
 0000:04B5 idle  F_LUDIV@
 0000:04C5 idle  F_LUMOD@
 0000:055C idle  F_LXLSH@
 0000:057D idle  F_PADD@
 0000:05DD idle  F_PSBP@
 0000:05AC idle  F_PSUB@
 1A42:00A5       GET_INT_VECTOR
 0000:04AE idle  LDIV@
 0000:04BD idle  LMOD@
 0000:04B5 idle  LUDIV@
 0000:04C5 idle  LUMOD@
 0000:055C idle  LXLSH@
 0000:04AB       N_LDIV@
 0000:04BA       N_LMOD@
 0000:04B2 idle  N_LUDIV@
 0000:04C2 idle  N_LUMOD@
 0000:0559       N_LXLSH@
 0000:07DF       N_LXMUL@
 0000:057A       N_PADD@
 0000:07F6       N_PCMP@
 0000:05DA       N_PSBP@
 0000:05A9 idle  N_PSUB@
 0000:057D idle  PADD@
 1D98:5136       page
 0000:05DD idle  PSBP@
 0000:05AC idle  PSUB@
 1945:020B idle  putback
 1945:0105 idle  savback
 1867:04A1       SaveTileBack
 1D98:6706 idle  SBC_INT_MASK_DATA
 1A42:0053 idle  SBC_READ_DSP
 1A42:0004       SBC_READ_DSP_TIME
 1A42:0071       SBC_WRITE_DSP
 1A42:002B       SBC_WRITE_DSP_TIME
 1A42:0090       SET_INT_VECTOR
 1D98:52DE       sndx
 1D98:54A0 idle  txtorg
 1D98:513A       vb_flag
 1D98:0B06       _a1_extra
 1C5A:0EA0 idle  _aa_distance
 0000:027A       _abort
 1D98:60AC       _accum
 1D62:1C39 idle  _ActivateBridgeCode
 0DE1:147E idle  _ActivateTunnel
 1D46:5145       _activate_grps
 159A:084B       _addanim
 0C00:0008       _AddNode
 13E8:0071 idle  _AddVolume
 1C5A:0000 idle  _add_creature
 159A:0462       _add_display
 159A:054B       _add_group
 1945:033B       _add_task
 1D98:4DD2       _ahead
 1D98:C874 idle  _alist
 1D98:4E86 idle  _alloccount
 1D98:CC7A idle  _allocpages
 1D98:BECC idle  _alst
 159A:0EB4       _Animate
 159A:0E9D       _animate
 1D98:4DD6 idle  _animblk
 1D98:514C       _animfin
 1D46:541B       _anim_distance
 1D98:7FCA idle  _anvil_drop1
 1D98:7F86 idle  _anvil_sqwsh
 0C00:008E idle  _AppendNode
 1D98:BE1A idle  _arch
 1D98:BD8E idle  _arrowup
 0000:02CB idle  _atexit
 0000:18CF idle  _atoi
 0000:185A       _atol
 1D98:7445 idle  _avail
 1D98:7F62 idle  _avoid1
 1D98:7F60 idle  _avoid2
 1D98:5490       _backptr
 1D98:BE26       _backwall
 1D98:7DB6 idle  _bag
 1D98:BE0A idle  _bats
 1D98:A6E8 idle  _bbar_goodie
 1D98:3AB4       _bbar_info
 1D98:A6D4 idle  _bburn
 1D98:BE1E idle  _bdoor
 1D98:A6E4 idle  _bgrab
 1D98:84E0 idle  _Birds
 1867:00B7       _blit_scr
 1D98:AEB6 idle  _BlockHeader
 1D98:A1FE idle  _bottom_a
 1D98:7E58 idle  _BoxAnim
 1D98:7E38 idle  _BoxFrame
 1C5A:0FEC       _brush_collision
 1D98:A76C idle  _bshok
 1D98:BE32 idle  _bubbles
 1D98:B99D idle  _buffer
 1C98:05CC idle  _BurnAndDie
 1D98:2BF8 idle  _Button
 1C98:1837 idle  _CalcJump
 1D98:451E idle  _calibch
 1C5A:0D2D idle  _ca_distance
 1D98:7F76 idle  _chair
 1D98:4520       _cheat_val
 0DE1:459D idle  _cheat_value
 1D62:196D idle  _CheckMoveFoe
 1C98:107C idle  _CheckStones
 0C3D:0092 idle  _check_cd
 1D98:C472 idle  _chnkcnt
 1D46:5013       _clean_ddas
 183F:004D idle  _clearbuff
 0BBB:0395       _ClearSoundList
 1945:041D       _clear_page
 1D46:5FF5 idle  _clear_section
 1355:0009 idle  _clear_temp_next
 0000:18FD       _close
 159A:0171       _CloseAnimSys
 0BBB:0145       _CloseGameSound
 13E8:014E       _CloseGfxSystem
 13E8:01C3       _CloseGfxVolume
 13E8:0179 idle  _CloseGfxVolumes
 1C98:14ED idle  _CloseMuttJump
 17E4:0372       _closetimer
 0DB5:0131       _CloseTunnelSamples
 159A:014B       _close_anim
 17E4:04B7       _close_jiffy
 13E8:1870       _clrcol
 198A:0043 idle  _clrtxt
 198A:0405 idle  _clrwnd
 1D98:515A idle  _ConfigKeys
 12FD:0040       _config_input
 1D98:4800       _Control
 159A:0CFB       _copyanim
 1945:03CE       _copypage
 1D98:BE9A       _core
 0000:0F40       _coreleft
 1D98:80EC idle  _creature_dir
 1C5A:0C95 idle  _creature_distance
 1A42:0484 idle  _ctvm_break_loop
 1A42:047B idle  _ctvm_continue
 1A42:03D1       _ctvm_init
 1A42:0441 idle  _ctvm_input
 1A42:045E       _ctvm_output
 1A42:0472 idle  _ctvm_pause
 1A42:040B idle  _ctvm_speaker
 1A42:041B idle  _ctvm_status_addx
 1A42:042F idle  _ctvm_stop
 1A42:0438       _ctvm_terminate
 1A42:03C8 idle  _ctvm_version
 1A42:0220       _ct_card_here
 1D98:670C       _ct_int_num
 1D98:670A       _ct_io_addx
 1A42:01F2 idle  _ct_scan_card
 1D98:6708       _ct_voice_status
 1D98:57AC       _curpal
 1D98:38F2 idle  _currdda
 1D98:80F6 idle  _current
 1D98:4DAC       _CurrentGfxVol
 1D98:7E88 idle  _curritem
 1D98:7E76 idle  _CurrMutt
 1D98:66F4       _curr_slot
 1D98:4DA2 idle  _cutaway
 1D98:4DB0       _CycHead
 1355:0460       _C_Close_Effects
 1355:0396       _C_Init_Effects
 1355:001C       _C_Load_Driver
 1355:0264       _C_Load_Tune
 1355:0121       _C_Load_Voice
 1D98:6B3C       _daylight
 1D46:554C idle  _ddahandle
 1D98:36A8 idle  _ddaids
 1D98:A9D8 idle  _ddalst
 1D98:77AA idle  _Death
 1783:0240 idle  _DecInvCount
 0000:0FA1       _delay
 1D98:4DDA idle  _delays
 12FD:054F       _detect_joy
 1D98:66B6       _dflag
 1D98:7FA6 idle  _dial
 1D98:7F56 idle  _dial_code
 1C98:15A5 idle  _DieCode
 1D98:7F5E idle  _direction
 1D98:BE56 idle  _djump
 1D98:3B74 idle  _dlevel3
 1D98:A718 idle  _dmnd_a1
 1CFB:01FC       _dobar
 1D06:0000       _dobub
 1D18:0000       _dochess
 1C72:0000       _dodark
 1C13:01FC       _dodeath
 1D1F:01FC       _dodemon
 1C7C:01FC       _dodragon
 159A:02AD       _DoFlashes
 1CAA:01FC       _dofrog
 1D2A:0000       _dogarden
 1C48:0000       _dogood
 1CC3:0000       _dohour
 1D98:45D4 idle  _DoInven
 1CE8:0000       _dolaser
 1C98:0000       _dolava
 0364:000D       _dolevel3
 1CCA:017A       _domac
 1D2F:003C       _domed
 1D98:B995 idle  _domm1
 1D98:3B76 idle  _dom_dom
 1D98:7F9A idle  _door
 1D98:BDB6 idle  _doorarch
 1C98:15FC idle  _DoorFunc
 1C78:0000       _dorealdark
 1945:0288 idle  _doreplace
 1D98:3CC6       _dorequest
 1D98:3CC3 idle  _DoRooms
 1CA4:0000       _dosac
 1CE1:020B       _dosiren
 1C8C:0000       _doskull
 1CB9:0000       _dosol
 12FD:039B       _DosPrint
 1C98:0D9A idle  _DoStones
 0000:2E50       _dostounix
 1C54:0000       _dotomb
 1C83:01FC       _dowitch
 1D98:BD96 idle  _downstairs
 1D98:CC8A       _down_limit
 1C28:093A       _do_a1
 1C5F:093A       _do_a2
 1CEE:0060       _do_arena5
 1D14:0000 idle  _do_disc
 1D62:036D       _do_ent
 1D7C:039A       _do_exit
 0DE1:3BC6       _do_fist
 1C4E:07E3       _do_furnace
 1C03:0436       _do_gob
 1C25:0364       _do_intro
 0DE1:4A8B idle  _do_inven
 1BFD:01A6       _do_loadreq
 0DE1:0EB4       _do_passiveloop
 1D46:6D81 idle  _do_piano
 1C22:01F8       _do_request
 1D36:026D       _do_rod
 1D98:3BE4 idle  _do_rooms
 1BFD:137E       _do_save
 1766:0000       _do_scrool
 1D46:3001 idle  _do_shok
 1D78:0042       _do_soul
 19ED:018E       _do_sound
 1C3E:1A53       _do_spider
 1D8C:0000       _do_swamp1
 1C1D:0177       _do_torture
 0DE1:00BB       _do_tunnels
 0DE1:4ECE idle  _do_tunnel_calibrate
 0DE1:2071 idle  _draw_backwall
 0DE1:1EA5       _draw_lefthalf
 0DE1:1EFD       _draw_righthalf
 1D36:1A4B idle  _dreset_anim
 1D98:66CC       _driver_seg
 1783:039E idle  _DropObject
 1783:02C1 idle  _DropRoomObjs
 1D36:1A31 idle  _dsetup_anim
 1714:03AE       _d_compact_emm
 1D98:BEA2       _d_down
 1D98:BEAA       _d_down_limit
 1D93:03FC       _d_fclose
 1D93:03D0       _d_fopen
 1D98:4E8A idle  _d_fopens
 1D98:BEA8       _d_left
 1D98:BEB0       _d_left_limit
 1D98:BEA0       _d_midx
 1D98:BE9E       _d_midy
 1D98:BEA6       _d_right
 1D98:BEAE       _d_right_limit
 1D98:BEA4       _d_up
 1D98:BEAC       _d_up_limit
 1D98:515E       _East
 1D98:BE98       _EditMode
 1D46:58BA       _edit_objlsts
 1D98:BEBA idle  _Effects_File
 1D98:BEB6 idle  _Effects_Ptr
 1D98:A818 idle  _effect_header
 1D98:A824 idle  _efghand
 1D98:A84C idle  _ehand
 1D98:CC80 idle  _emm_active
 1714:0199       _emm_alloc
 1714:0167       _emm_close
 1714:01E4       _emm_free
 1D98:CC78 idle  _emm_handle
 1714:0001       _emm_install
 1714:0239       _emm_setpage
 1D46:602B idle  _empty_objlsts
 19ED:006B       _EndAdlSound
 19ED:0112       _EndMusic
 19ED:00C7       _EndRolandSound
 1BF7:0381       _endseq
 1C4E:0440 idle  _endseq3
 1C4E:03D6 idle  _endseq_1
 1C4E:0415 idle  _endseq_2
 1C4E:04D3 idle  _end_pickup
 0DB5:0062       _end_sample_sound
 1D98:BAB6 idle  _EnergyDeduction
 1D98:45E5 idle  _EntityNdx
 1D98:0ADE       _ent_initdata
 1D98:6B00       _environ
 0000:1943       _eof
 1D98:007F       _errno
 1D98:4E74       _exclude
 0000:03B5       _exit
 1D98:2D1A idle  _EyeCount
 1D98:BE2E idle  _eyes1
 1D98:BE2A idle  _eyes2
 170B:0048       _ezrandom
 19DC:0040       _fade
 13E8:1A79       _FadeIn
 13E8:1AD2       _FadeOut
 17E4:04CB       _FadeSound
 1D98:451A idle  _fading
 1D98:7F7A idle  _fall1
 0000:1574       _farcoreleft
 0000:1142 idle  _farfree
 0000:1256       _farmalloc
 0000:13BA idle  _farrealloc
 1D98:A6D0 idle  _fburn
 1D98:C470 idle  _fchnks
 0000:19BA       _fclose
 1D98:BD76 idle  _fdoor
 1D98:BE3A idle  _fdoor1
 1D98:741A idle  _ffblk
 0000:1A72       _fflush
 0000:22EB idle  _fgetc
 0000:23D9 idle  _fgetchar
 1D98:A6E0 idle  _fgrab
 1D98:A840 idle  _fhand
 0000:1B9F       _filelength
 0000:1B3F       _findfirst
 0000:1B72 idle  _findnext
 13E8:0396 idle  _FindVPic
 1D98:7FF2 idle  _fire
 1D98:800A idle  _fireanim7
 1D98:7F68 idle  _fire_slab
 1D98:7F66 idle  _fire_slab1
 1D98:66AC       _firstreg
 1D98:66AE       _firstregX3
 1D98:BE12 idle  _fist
 1C98:12F8 idle  _FixAnims
 159A:01AA       _FlashAnim
 1D98:7D4C idle  _flash_object
 1D98:CA74 idle  _flist
 0000:1BE0       _flushall
 13E8:0481       _FlushGfxVol
 1D98:4214 idle  _FoeAnimList
 1D98:41EC idle  _FoeCharacterCode
 1D98:B999 idle  _font
 1D98:3CCA idle  _FoodStore
 0000:1DF9       _fopen
 159A:0783       _forward_anim
 0000:27C1 idle  _fputc
 0000:2956 idle  _fputchar
 159A:0677 idle  _frame_advance
 1D98:4E70       _frame_count
 1D98:4E72       _frame_rate
 159A:06CD idle  _frame_rewind
 0000:1F22       _fread
 0000:1142       _free
 1D98:4E88 idle  _freecount
 1D46:55C1 idle  _freehandle
 1D93:0010       _freemem
 1D98:CC7C       _freepages
 1D46:63C4       _free_maps
 0000:2032       _fseek
 1D98:C474 idle  _fsizes
 0000:20B2       _ftell
 1D98:A6B4 idle  _fullenergy
 1D98:B987 idle  _furnace_code
 0000:2192       _fwrite
 1D98:7F6C idle  _GameOver
 1D98:45E3 idle  _GameTime
 1D98:45E6 idle  _gch
 1C4E:11B0 idle  _generate_codes
 0000:03F0       _getdate
 0000:0482       _getdfree
 0000:0416       _getdisk
 0000:23E5       _getenv
 0000:0464 idle  _getfat
 0000:044F idle  _getfatd
 183F:0002       _getkey
 1D93:0000       _getmem
 1783:0177 idle  _GetObject
 1783:0118       _GetRoomInv
 0000:0403       _gettime
 13E8:03D4       _GetVPic
 198A:00B2       _getwnd
 198A:0038 idle  _getwndptr
 12FD:022E       _get_joy_position
 1D98:4D9E idle  _GfxLoadErrors
 1D98:4DA8 idle  _GfxVolList
 1D98:A858 idle  _ghand
 13E8:181C       _ginit
 1D98:73F6 idle  _gob
 1D98:73F2 idle  _gob_top
 1D98:A714 idle  _godsover
 198A:02C1 idle  _gotoxy
 1D98:7856 idle  _go_down
 1D98:785C idle  _go_left
 1D98:785A idle  _go_right
 1D98:7858 idle  _go_up
 13E8:001B       _gprepare
 13E8:004C       _gprep_kill
 1D98:BEC4       _gprep_vol
 1D98:A710 idle  _grab_a
 1D98:A70C idle  _grab_anim
 1D46:6304 idle  _grp_change
 1D98:B950       _grp_header
 1D46:613A idle  _grp_insert
 1D98:455C idle  _grp_priority
 1D46:6252 idle  _grp_remove
 1D98:CC74       _h
 1D98:BDF6       _halfwl
 1D98:BDEA       _halfwr
 159A:15C1       _halt_branch
 0DE1:2F0A       _Halt_Char
 13E8:1A3A       _halt_cycle
 1D46:50C2       _halt_groups
 1D98:A6C0 idle  _handkey1
 1D98:A6C8 idle  _handy
 1D98:A6C4 idle  _handy1
 1D98:4E9C idle  _HasEveryThing
 1D98:B8DA       _hd_next
 1D98:A834 idle  _hhand
 1D98:A708 idle  _hind_a
 1D98:740A idle  _hi_bottom
 1D98:740E idle  _hi_mid
 1D98:7412 idle  _hi_right
 1D98:7416 idle  _hi_top
 1D98:A71C idle  _hpickb
 1D98:A720 idle  _hpickf
 1D98:A728 idle  _hpickl
 1D98:A724 idle  _hpickr
 1D98:514E idle  _ignore_timer
 1D98:A828 idle  _ihand
 1D98:38D6 idle  _in
 1783:01BF idle  _IncInvCount
 19ED:02F6       _InitAdlSound
 1D98:AEB2 idle  _initalst
 159A:0138       _InitAnimSys
 0BBB:000E       _InitGameSound
 13E8:010B       _InitGfxSystem
 0C00:0150       _InitList
 19ED:02C5       _InitMusic
 1C98:13A9 idle  _InitMuttJump
 1783:000F       _InitObjectList
 19ED:03C5       _InitRolandSound
 198A:000E       _inittext
 17E4:0317       _inittimer
 0DB5:010D       _InitTunnelSamples
 159A:000B       _init_anim
 1D46:0000       _init_animeffects
 13E8:19A9       _init_cycle
 1D46:47B8       _init_ddas
 0DB5:0007       _init_demo_sound
 1D46:639B       _init_maps
 0DB5:0029       _init_sample_sound
 1D98:0246 idle  _init_slstdata
 0DE1:2D8E       _init_stand
 1D98:39F6 idle  _init_trans
 1D98:5157 idle  _injoy
 0C00:010F idle  _InList
 1D98:B92A       _input_data
 0C00:0053 idle  _InsertNode
 0C16:0008       _InstallFrontEnd
 0000:15C4       _int86
 0000:15F5 idle  _int86x
 1D98:4518       _InTunnels
 1D98:7E8E idle  _Invent
 0000:168E       _ioctl
 0000:064D       _isatty
 1D98:4DA6       _ISFadeOut
 0000:2455 idle  _itoa
 1D98:BDA2 idle  _jailor
 1D98:BD9E idle  _jailorb
 1D98:7F82 idle  _jaler1
 1D98:7F7E idle  _jhand
 1D98:B98F       _jiffy_cnt
 1D98:47FC       _joynew
 1D98:47FA       _joyold
 1D98:47FE       _joytrig
 1D98:BEB4       _joy_x
 1D98:BEB2       _joy_y
 1C98:0A26 idle  _JumpDoor
 1D98:29E8 idle  _JumpDx
 1D98:29FA idle  _JumpDy
 1C98:04DB idle  _JumpEnd
 1D98:856C idle  _JumpEndCode
 1C98:1497 idle  _JumpFinishCode
 1C98:092F idle  _JumpLedge
 1D98:2A0C idle  _JumpModDx
 1D98:2A1E idle  _JumpModDy
 1C98:0665 idle  _JumpMutt
 1D98:857C idle  _JumpPic
 1C98:098B idle  _JumpStep
 183F:00BE       _kb_close
 183F:007D       _kb_install
 1D98:3B64 idle  _kdirs
 1D98:7F92 idle  _key
 1C98:0DEF idle  _KeyCode
 1D98:B980       _KeyCount
 1D98:A6BC idle  _keyover1
 183F:005A idle  _keyready
 1D98:480B       _keys
 183F:006D       _KeyState
 1D98:7FD2 idle  _kickanim
 159A:0381 idle  _KillFlash
 159A:041F       _KillFlashes
 13E8:16D1       _killpic
 1783:04F9       _KillRoomPics
 13E8:03FC       _KillVolPics
 0C3D:1551       _kill_and_cleanup
 159A:0DD2       _kill_anim
 1C5A:017A idle  _kill_creature_list
 159A:0D24       _kill_list
 1D46:471D       _kill_panims
 1D98:4DA4 idle  _kill_room
 1945:0374       _kill_task
 13E8:17A2       _kill_tun_pic
 1C98:0476 idle  _LaneXPos
 1C98:04A7 idle  _LaneYPos
 1D98:A73C idle  _larrowb
 1D98:4E82 idle  _LastBlk
 1D98:7E8A idle  _lastitem
 1D98:A744 idle  _ldart
 1D98:7E68 idle  _leaveroom
 1D98:A800 idle  _leftflame
 1D98:A7F4 idle  _leftflamex
 1D98:A7F0 idle  _leftlong
 1D98:CC8E       _left_limit
 1D98:45E9 idle  _levelexit
 1D98:3A5C       _LevelGold
 1D98:38D2       _level_array
 1D98:1D26 idle  _lftstop
 1D98:7FCE idle  _lgb_wait
 1D98:A7D8 idle  _lhand
 1D98:A74C idle  _limpale
 1D98:B9A1 idle  _list
 1355:047D       _LoadEffect
 1C48:039E idle  _LoadGoodiesAnims
 1D46:6409       _LoadMaps
 1D98:451C idle  _loadpermit
 13E8:0D18       _loadpic
 1355:0518       _LoadRolandDriver
 1355:0674       _LoadRolandVoice
 1C98:0B2B idle  _LoadRoomAnims
 1783:0495       _LoadRoomPics
 19ED:0464       _LoadTune
 1D46:4616       _load_panims
 0BBB:0236       _Load_Room_Sound
 0DB5:0011       _load_sample
 13E8:137F       _load_tun_tile
 1D98:BE42 idle  _lookin
 1D98:BE3E idle  _lookout
 1D98:7FEE idle  _lost_soul1
 1D98:7FEA idle  _lost_soul1a
 1D98:7FE6 idle  _lost_soul2
 1D98:7FE2 idle  _lost_soul3
 0000:0700       _lseek
 1D98:A730 idle  _lsquirt
 1D98:A89C idle  _lst
 0000:249D       _ltoa
 1D98:A9D4 idle  _lturndda
 1D98:78BC idle  _lut
 0C3D:00D2       _main
 1C98:0E57 idle  _MakeCurrent
 1D93:029D idle  _makefree
 0000:124C       _malloc
 1D98:38DA idle  _map
 1D98:A898       _maplst
 1D98:38EE idle  _mapobjfile
 1D98:B879 idle  _mapoffsets
 1D98:80E6       _mapptr
 1D98:AEBE       _map_to_show
 1D98:4DD0 idle  _maxanim
 1D98:4E84 idle  _MaxBlks
 1D98:8606 idle  _MaxJumpDx
 1D98:8604 idle  _MaxJumpDy
 1D98:548C       _maxrep
 1D98:52D8       _MaxTiles
 1D98:4E8C idle  _max_fopens
 1D98:52D4       _max_x
 1D98:52D6       _max_y
 198A:04E5 idle  _mbar
 1D98:A7C8 idle  _mbslapl
 1D98:A7C4 idle  _mbslapr
 1D98:A7BC idle  _mbspike
 0C3D:1565 idle  _memcheck
 0000:24C5       _memcpy
 1D98:B94C idle  _memleft
 1D98:C46C idle  _MemLst
 0000:257E idle  _memmove
 1D98:BE94 idle  _MemSaveVol
 0000:250D       _memset
 1D98:7E6A idle  _MenuAnim
 1C48:0A05 idle  _MenuHandler
 1D98:73CE idle  _mesh
 1D98:A7D0 idle  _mfslapl
 1D98:A7CC idle  _mfslapr
 1D98:A7C0 idle  _mfspike
 1D98:3B62 idle  _mleft_bk
 1D98:A7FC idle  _mlflame
 1D98:A7F8 idle  _mlflameb
 17D8:0002       _mode400
 159A:1630       _move_anim
 0000:252C       _movmem
 1D46:66D6       _MP_ClearFlag
 1D46:65D9       _MP_Flags
 1D46:663B idle  _MP_Neighbour
 1D46:6626 idle  _MP_objlist
 1D46:66A8       _MP_xcoord
 1D46:66BF       _MP_ycoord
 1D98:A7E4 idle  _mrflame
 1D98:A7E0 idle  _mrflameb
 1D98:A734 idle  _mtexplode
 1D98:A810 idle  _mtfall
 1D98:A7B0 idle  _mtpickf
 1D98:A7A8 idle  _mtpickfs
 1D98:A790 idle  _mtpickl
 1D98:A7AC idle  _mtpicko
 1D98:A78C idle  _mtpickol
 1D98:A784 idle  _mtpickor
 1D98:A7A4 idle  _mtpickos
 1D98:A788 idle  _mtpickr
 1D98:BE4A idle  _mtunlock
 1D98:A704 idle  _mt_a
 1D98:80FA idle  _mutt
 1D98:B944       _Mutt
 1D98:84B4 idle  _MuttChar
 1D98:A804 idle  _muttclimb
 1C98:0400 idle  _MuttDie
 1D98:BD82 idle  _muttdnstr
 1D98:BD7E idle  _muttdnstrs
 1D98:7E7E idle  _MuttEnter
 1D98:7E7A idle  _MuttExit
 1D98:7F6E idle  _muttexit
 1D98:A6B8 idle  _muttgkey
 1783:046F       _MuttGotIt
 1CCA:09E8 idle  _MuttHit
 1C03:1A01 idle  _MuttJump
 1D98:8574 idle  _MuttJumpDown
 1D98:860E idle  _MuttJumpDx
 1D98:860C idle  _MuttJumpDy
 1D98:8614 idle  _MuttJumpFrames
 1C98:190E idle  _MuttJumpHandler
 1D98:2A30 idle  _MuttJumpSpeed
 1D98:8570 idle  _MuttJumpTop
 1D98:8612 idle  _MuttJumpTopEnd
 1D98:8610 idle  _MuttJumpTopFrame
 1D98:8578 idle  _MuttJumpUp
 1D98:860A idle  _MuttJumpX
 1D98:8608 idle  _MuttJumpY
 1D98:2A32 idle  _MuttJumpYmods
 1D98:BE52 idle  _muttkick
 1CAA:1022 idle  _MuttLoc
 1D98:7E72 idle  _MuttManim
 1C98:0A66 idle  _MuttOffStone
 1D98:8602 idle  _MuttOldState
 1D98:7FDE idle  _muttrun1
 1D98:7FDA idle  _muttst1
 1D98:29C8 idle  _MuttTopFix
 1D98:8600 idle  _MuttTopFix1
 1D98:85FE idle  _MuttTopFix2
 1D98:85FC idle  _MuttTopFix3
 1D98:BD86 idle  _muttupstr
 1D98:BD7A idle  _muttupstrs
 1D98:BDAA idle  _mutt_fallout
 1D98:BDA6 idle  _mutt_falloutb
 1D98:1D2A idle  _mutt_furn
 1D98:A6FC idle  _mutt_grab
 1D98:813E       _mutt_highest_prio
 1D98:813A       _mutt_lowest_prio
 1D98:B985       _mutt_ndx
 1D98:84E8 idle  _mutt_pick
 1D98:BDAE idle  _mutt_weak
 1D98:3CC4       _mutt_wins
 1D98:BDBA idle  _mut_dot
 1D98:A1F6 idle  _mynum
 1D98:45E2       _myskip
 1D98:45DE       _mytimer
 1D98:4DCE idle  _nanims
 1D98:3CC8       _NewLevel
 1D98:45D8 idle  _NewNrg
 1D78:0000 idle  _new_anim
 1C5A:09C8 idle  _new_dir
 0DE1:24F7       _nex2_section
 0DE1:0DCF idle  _next_level
 0DE1:247A       _next_section
 0DE1:2668       _next_segment
 1D98:66BA       _NoGameSound
 1D98:66B8 idle  _NoMusic
 1D98:515C       _North
 1D98:4522       _NoSamplePlaying
 1D98:4500       _NoSound
 1D98:45D0       _NotDead
 1D98:45D6       _NrgLevel
 1D98:73E2 idle  _num
 1D98:31DE idle  _num0
 1D98:7E84 idle  _numitems
 1D98:AEBC idle  _numrec
 1D98:73CA idle  _num_top
 1D98:4E9E idle  _ObjectData
 1D98:CC92       _ObjectList
 1D98:5132       _ObjInit
 1D98:A980 idle  _objs
 1D98:3832 idle  _Obj_Func
 1D98:ADDA       _Obj_Lst
 1D98:3A9E idle  _obj_maps
 1D98:BEC8 idle  _offsets
 1D98:A81C idle  _ohno
 1D98:45CE idle  _OldSection
 1D98:52CC       _OldX
 1D98:52CE       _OldY
 1D98:80EA idle  _old_creature_dir
 1D98:7F64 idle  _old_fire_slab1
 1D98:BEC0 idle  _old_gfx_vol
 0000:25CC       _open
 1D98:BE4E idle  _opendoor
 13E8:0886       _OpenGfxVolume
 13E8:0532       _OpenHDGfxVolume
 1D98:A700 idle  _out_a
 1D98:5138       _page
 1D98:CC7E idle  _pagefrm
 1D98:54AA idle  _page_mask
 1D98:52D0       _page_x
 1D98:52D2       _page_y
 1D98:5AAC       _part
 159A:071F       _pause_anim
 1D98:A75C idle  _pdust1
 1D98:A758 idle  _pdust2
 1D98:A6CC idle  _pflame
 1D98:A760 idle  _piano
 1D98:4DA0 idle  _picalloc
 1D98:A7A0 idle  _pickf
 1D98:A798 idle  _pickfs
 1D98:A780 idle  _pickl
 1D98:A79C idle  _picko
 1D98:A778 idle  _pickol
 1D98:A774 idle  _pickor
 1D98:A794 idle  _pickos
 1D98:A77C idle  _pickr
 1D98:7F8E idle  _pickup_drop
 1D98:37F5 idle  _pickup_frame
 1D98:8034 idle  _pictptr
 1D98:381A idle  _pit_codes1
 0DE1:3756       _pit_here
 1783:03DB       _PlaceObject
 1D98:84D8 idle  _PlatForm
 1C5A:01BE idle  _play
 1D98:785E       _playagain
 19ED:015A       _play_effect
 0DB5:00EE       _play_sample
 19ED:01C0       _play_tune
 0BBB:016D       _play_voc
 0BBB:01D5 idle  _play_voc_loop
 1D98:A754 idle  _pmagik
 1D98:A820 idle  _poff
 1D98:A750 idle  _ppotion
 0DE1:23FD idle  _prev_section
 0DE1:25AB       _prev_segment
 198A:02E9       _print
 0000:278A       _printf
 1D46:11F2       _process_objlst
 198A:01F3 idle  _putchr
 1D98:7F72 idle  _rack
 0000:0828       _rand
 1D98:A738 idle  _rarrowb
 12FD:045C idle  _raw_func
 1D98:A740 idle  _rdart
 12FD:008A       _readjoy
 0C3D:1290 idle  _read_config_file
 1C5A:0BBA       _read_in_map
 0C3D:1607       _read_map
 0000:13B3 idle  _realloc
 1D98:7E6E idle  _ReflectEnter
 1D98:0094       _Refresh
 0DE1:2F53 idle  _RefreshMap
 1D98:66B0       _regcnt
 1D98:66B2       _regcntX3
 1D98:80E2 idle  _remember
 0C16:0081       _RemoveFrontEnd
 1C98:105E idle  _RemoveKey
 0C00:00CC idle  _RemoveNode
 13E8:00C1 idle  _RemoveVolume
 1D98:538C       _repfrms
 1C48:0766 idle  _ResetMenuPics
 159A:07E7       _reset_anim
 0DE1:2F39       _Restore_Char
 1945:018B idle  _restpic
 159A:07B5       _reverse_anim
 1D98:A7D4 idle  _rhand
 1D98:A7E8 idle  _rightflame
 1D98:A7DC idle  _rightflamex
 1D98:A7EC idle  _rightlong
 1D98:CC90       _right_limit
 1D98:A748 idle  _rimpale
 170B:0004       _rnd
 1D98:4E8E idle  _rndini
 1D98:66D0       _roland_seg
 1D98:7E82 idle  _room
 1D98:3CC0       _roomst
 1D46:6727       _room_index
 1D98:7FA2 idle  _rope
 1D98:A72C idle  _rsquirt
 1D98:A9D0 idle  _rturndda
 1D98:4E90 idle  _s1
 1D98:4E91 idle  _s2
 1D98:4E92 idle  _s3
 1D98:6B88 idle  _safety
 1D98:6B84 idle  _safety1
 1D98:4506       _SampleIndex
 1BFD:0FB2       _SaveGame
 1945:0006       _savepic
 1BFD:0192       _SavesOnDisk
 1A42:0220 idle  _sbc_check_card
 1A42:0398       _sbc_dsp_reset
 1A42:01F2       _sbc_scan_card
 1A42:00E6       _sbc_scan_int
 1D98:1449 idle  _scard_types
 1D98:B98B       _scrollxmax
 1D98:B98D       _scrollymax
 1D98:CC86       _scrol_pix_rl
 1D98:CC88       _scrol_pix_ud
 1D98:4E98       _scrol_rl
 1D98:4E9A       _scrol_ud
 1D98:54AC       _scrpal
 1D98:52C4       _scr_ht
 1D98:52C6       _scr_wid
 1D98:52C8       _scr_x
 1D98:52CA       _scr_y
 0000:087D       _segread
 1C48:0BFC idle  _SelectItem
 0000:17E6       _setblock
 183F:0062 idle  _setcaps
 13E8:18E8       _setcolors
 13E8:1993       _setcolor_reg
 0000:089D       _setdate
 0000:0430 idle  _setdisk
 0000:24E9 idle  _setmem
 0DE1:32C3       _SetNrg
 17D8:00A0       _setpage
 19DC:0008       _setpalette
 198A:00B6       _settext
 0000:08B2       _settime
 0000:2C3E       _setvbuf
 198A:007F       _setwnd
 0DE1:45DE       _set_cheat
 17E4:049B       _set_jiffy
 12FD:0105 idle  _set_joy_limits
 12FD:00F4 idle  _set_timer
 1D98:A550 idle  _ShoeLst
 1D98:A770 idle  _shok
 1D98:548E idle  _showhid
 18B7:000E       _showpic
 19ED:0002       _SilenceMusic
 1D98:C674 idle  _sizes
 1D98:84B0 idle  _SkullChar
 1D98:7FB2 idle  _slab
 1D98:7F96 idle  _slab7
 1D98:1D28 idle  _slabmove
 1D98:800E idle  _slabs
 1D98:96DA idle  _SlingerDie
 1D98:96CA idle  _SlingerWalk
 1D98:7F8A idle  _slug_sqwsh
 1D98:BE36 idle  _smoke
 1C5F:1C17 idle  _SM_KillMutt
 1D93:01AB idle  _sort
 1D98:0D7A idle  _SoundsList
 1D98:66BC       _sound_flags
 1D98:66BE       _sound_ok
 1D98:515D       _South
 1D98:BD6E idle  _spark
 1D98:BD6A idle  _spark1
 1D98:A974 idle  _special_ddas
 1D98:38C6 idle  _Special_Func
 1D98:BE02 idle  _spider_eek
 1D98:7D10 idle  _spider_struct
 1D98:A7B8 idle  _spikel
 1D98:A7B4 idle  _spiker
 1C4E:0000 idle  _spindle
 1D98:A814 idle  _splash
 1D98:81FF idle  _sprite
 0000:0817       _srand
 1D98:7264       _Srlist
 1D98:BD8A idle  _stair
 1D98:BD92 idle  _stairarch
 1D98:BE5A idle  _stand
 1C98:0E3D idle  _StandAnimCode
 1D98:7E8C idle  _startitem
 1C48:07C5 idle  _StartMenu
 1C98:161C idle  _StartMuttJump
 1C98:114C idle  _StartNewStone
 1D98:7F5C idle  _StayPut
 1D98:66B4       _stepcnt
 0000:0981 idle  _stime
 1C98:0E64 idle  _StoneHandler
 1C98:0A86 idle  _StoneHit
 1D98:86CE idle  _StoneX
 1D98:86C6 idle  _StoneY
 19ED:028E       _stop_music
 0000:2D5B       _strcat
 0000:2D9A       _strchr
 0000:2DD7       _strcpy
 0000:2E00       _strlen
 0000:2E1F       _strncpy
 1D98:1D24 idle  _success
 1D98:7F6A idle  _success1
 0DE1:1450 idle  _SuspendTunnel
 1945:02D6       _swappage
 1D98:5160       _Switch1
 1D98:5161       _Switch2
 1783:031B       _TakeObject
 1D98:7DA0 idle  _target_dir
 1D98:A6DC idle  _tbsat
 1D98:BDB2       _tdoorarch
 1D98:BE46       _tdooropen
 1D98:80F2 idle  _temp
 1D98:80DA idle  _temp_map
 1D98:B88A       _temp_next
 1D98:7E34 idle  _temp_pointer
 0C3D:177E       _terminate
 1D98:B886 idle  _test1
 1D98:B882 idle  _test2
 1C4E:06A0 idle  _test_for_kick
 1C4E:05B9 idle  _test_for_mt
 198A:01E8       _textcolor
 1D46:3C1B idle  _tfpit_code
 1D98:A6D8 idle  _tfsat
 1D98:514A       _tiflag
 1D98:52C0       _tileset
 0000:09C1       _time
 1D98:5153 idle  _timecount
 1D98:0096 idle  _TimeCycle
 17E4:0313 idle  _timerst
 1D98:6B38       _timezone
 1D98:45E7 idle  _TMask
 198A:0030 idle  _toggletext
 1D98:7F9E idle  _ton_wght
 1D98:A202 idle  _top_a
 1D98:0B38       _tort_extra
 1D98:7E86 idle  _totalitems
 1D98:BEBE idle  _tptr
 1D98:A768 idle  _train
 1D98:3A3A idle  _trans_loc
 1D98:B981       _TreasureScore
 1D98:BE06 idle  _tspider
 1D98:A764 idle  _tsplat
 1D98:66CE       _tune_seg
 1D98:BDCA idle  _tunnelpics
 1D98:4508 idle  _TunnelSoundVol
 1D98:B948       _TunVol
 1D98:0B54       _tun_initdata
 1D98:7FD6 idle  _turnspindle
 1D46:13D1 idle  _turn_code
 1C4E:0193 idle  _turn_slabs
 1D98:54A8 idle  _txtupdt
 1D98:6B30 idle  _tzname
 0000:317E       _tzset
 0000:2480 idle  _ultoa
 1CCA:0843 idle  _UmpShoutCode
 1CCA:087F idle  _UmpWatchCode
 0000:2F7A       _unixtodos
 0000:0A19       _unlink
 159A:0751       _unpause_anim
 1C48:0C24 idle  _UnSelectItem
 17E4:0002       _UpdateAlist
 1C48:066B idle  _UpdateInv
 1C48:06FF idle  _UpdateMenu
 0C16:0173       _UpdateTreasureScore
 159A:0ECB       _update_anim
 0DE1:1C9C       _update_backwall
 1D98:BD4C idle  _update_energy
 1D46:0F67       _update_objlsts
 0DE1:2FC2 idle  _update_tlmap
 0DE1:1C24       _update_tunnels
 1D98:BD9A idle  _upstairs
 1D98:CC8C       _up_limit
 13E8:0287       _UseGfxVolume
 1D93:0071       _valloc
 1D93:0106       _vfree
 1D93:0023       _vinit
 1D98:4502 idle  _voc_buffer
 12FD:0443 idle  _WaitKey
 17D8:008C       _waitvb
 1D98:BE5E idle  _walk
 1CCA:09F8 idle  _WalkOutCode
 1D98:BE22 idle  _wallfront
 1D98:515F       _West
 1783:044C       _WhereIsObj
 1D98:317A idle  _win0
 198A:0397       _window
 1783:0414 idle  _WipeObject
 1D98:B989       _WitchCombination
 1945:0409 idle  _wndcnt
 1D98:52E0       _wopen
 1D46:60D0 idle  _write_objmap
 0DB5:000C       _xctvd_terminate
 1867:000A       _xfer_tiles
 1D98:80F0 idle  _x_diff
 1D98:A1EE idle  _yrnum
 1D98:80EE idle  _y_diff
 1D98:BD66 idle  _zap
 1D98:BD5E idle  _zbshok
 1D98:BD72 idle  _zentity
 1D98:BD5A idle  _zfallou
 1D98:BD56 idle  _zfalloub
 1D98:BD62 idle  _zshok
 0000:1000 idle  __AHINCR
 0000:000C idle  __AHSHIFT
 1D98:6AF0 idle  __argc
 1D98:6AF2 idle  __argv
 1D98:6716       __atexitcnt
 1D98:D65A       __atexittbl
 0000:14AA       __brk
 1D98:008B       __brklvl
 1D98:006B       __C0argc
 1D98:006D       __C0argv
 1D98:0071       __C0environ
 1BBC:0014       __CALLEMSEXIT
 1BBC:0010       __CALLEXTEMSSWAP
 1BBC:0012       __CALLEXTEXIT
 0000:03D6 idle  __cexit
 0000:016A       __checknull
 1B27:089B idle  __CHECKOVERLAY
 1B27:0803 idle  __CHECKSTACK
 0000:18E0       __chmod
 0000:0157       __cleanup
 0000:1925       __close
 1D98:6718       __ctype
 0000:0000  Abs  __cvtfak
 0000:03E4 idle  __c_exit
 1B27:000F idle  __DGROUP
 1D98:69E4       __doserrno
 0000:063B       __DOSERROR
 1D98:69E6 idle  __dosErrorToSV
 0000:0335       __dos_getdrive
 0000:02F8       __dos_getfileattr
 0000:0347       __dos_setdrive
 0000:0318 idle  __dos_setfileattr
 1D98:0075       __envLng
 1D98:0077       __envseg
 1D98:0079       __envSize
 1BBC:03A4       __EXEDATE__
 1BBC:0398       __EXENAME__
 0000:03C4       __exit
 1D98:681A       __exitbuf
 1D98:681E       __exitfopen
 1D98:6822 idle  __exitopen
 0000:02CA       __FAR_RETURN
 0000:22D3       __fgetc
 1D98:69E0       __fmode
 0000:27A5 idle  __fputc
 0000:296A       __FPUTN
 0000:1DAF idle  __GETFP
 1D98:0087       __heapbase
 1D98:008F       __heaptop
 1B27:02A3       __InitModules
 1D98:005B idle  __Int0Vector
 1D98:005F idle  __Int4Vector
 1D98:0063 idle  __Int5Vector
 1D98:0067 idle  __Int6Vector
 0000:0602       __IOERROR
 0000:336C       __ISDST
 1B27:07CD idle  __ISOVERLAYMOD
 0000:065E       __LONGTOA
 0000:0729       __MKNAME
 0000:0293 idle  __MMODEL
 1D98:6B16 idle  __monthDay
 0000:22E8 idle  __Nfgetc
 1D98:69B6       __nfile
 1D98:69E2       __notUmask
 0000:273B       __open
 1D98:69B8       __openfd
 0000:1CDE idle  __OPENFP
 1D98:007D       __osmajor
 1D98:007E idle  __osminor
 1D98:007D idle  __osversion
 0000:02AD       __OverlayHalt
 1BBC:001A idle  __OVRBACKLINK__
 1D98:3CCC       __ovrbuffer
 1BBC:00B2       __OvrCodeList
 1BBC:00B8       __OvrDosHandle
 1B27:019B       __OVREXIT
 1BBC:00A4       __OvrFileBase
 1BBC:001C       __OVRFILENAME
 1B27:000D idle  __OVRGROUP
 1BBC:00B6       __OvrHeapEnd
 1BBC:00B4       __OvrHeapOrg
 1BBC:00B0       __OvrHeapPtr
 1BBC:0016       __OVRHOOK__
 1B27:0018       __OVRINIT
 1BBC:00BA       __OvrLoadCount
 1BBC:00BC       __OvrLoadList
 1BBC:00A2       __OvrMemorySwap
 1BBC:00AA       __OvrMinHeapSize
 1B27:08F3 idle  __OvrPrepare
 1BBC:00AE       __OvrProbation
 1BBC:00A8       __OvrRetrySize
 1D98:6712       __OvrSize
 1BBC:00AC       __OvrTrapCount
 1BBC:00A0       __OVRTRAP__
 1D98:007B       __psp
 0000:084E       __read
 1B27:04CE idle  __ReadOvrDisk
 0000:16B7       __REALCVT
 1D98:6B4A       __RealCvtVector
 0000:01C0       __restorezero
 0000:14E9       __sbrk
 1D98:6B4C idle  __ScanTodVector
 1BBC:0398       __SEGTABEND__
 1BBC:00C0       __SEGTABLE__
 0000:0000  Abs  __setargv__
 0000:0000 idle  __setenvp__
 0000:08C7       __setupio
 1D98:0081 idle  __StartTime
 1D98:6A4E       __stklen
 0000:0F0C       __stpcpy
 1D98:6826       __streams
 0000:016B       __terminate
 0000:0786 idle  __TMPNAM
 0000:06E0       __UTOA
 1D98:007D idle  __version
 0000:0A49       __VPRINTER
 0000:359C       __write
 0000:35D8       __xfclose
 0000:3615       __xfflush
 1D98:0085 idle  ___brklvl
 0000:1002 idle  ___first
 0000:1004 idle  ___last
 0000:2B6D       ___read
 0000:1006 idle  ___rover
 0000:344B       ___write

  Address         Publics by Value

 0000:0000  Abs  __setargv__
 0000:0000  Abs  __cvtfak
 0000:0000 idle  __setenvp__
 0000:000C idle  __AHSHIFT
 0000:0157       __cleanup
 0000:016A       __checknull
 0000:016B       __terminate
 0000:01C0       __restorezero
 0000:027A       _abort
 0000:0291 idle  DGROUP@
 0000:0293 idle  __MMODEL
 0000:02AD       __OverlayHalt
 0000:02CA       __FAR_RETURN
 0000:02CB idle  _atexit
 0000:02F8       __dos_getfileattr
 0000:0318 idle  __dos_setfileattr
 0000:0335       __dos_getdrive
 0000:0347       __dos_setdrive
 0000:03B5       _exit
 0000:03C4       __exit
 0000:03D6 idle  __cexit
 0000:03E4 idle  __c_exit
 0000:03F0       _getdate
 0000:0403       _gettime
 0000:0416       _getdisk
 0000:0430 idle  _setdisk
 0000:044F idle  _getfatd
 0000:0464 idle  _getfat
 0000:0482       _getdfree
 0000:04AB       N_LDIV@
 0000:04AE idle  LDIV@
 0000:04AE idle  F_LDIV@
 0000:04B2 idle  N_LUDIV@
 0000:04B5 idle  F_LUDIV@
 0000:04B5 idle  LUDIV@
 0000:04BA       N_LMOD@
 0000:04BD idle  F_LMOD@
 0000:04BD idle  LMOD@
 0000:04C2 idle  N_LUMOD@
 0000:04C5 idle  LUMOD@
 0000:04C5 idle  F_LUMOD@
 0000:0559       N_LXLSH@
 0000:055C idle  LXLSH@
 0000:055C idle  F_LXLSH@
 0000:057A       N_PADD@
 0000:057D idle  F_PADD@
 0000:057D idle  PADD@
 0000:05A9 idle  N_PSUB@
 0000:05AC idle  F_PSUB@
 0000:05AC idle  PSUB@
 0000:05DA       N_PSBP@
 0000:05DD idle  PSBP@
 0000:05DD idle  F_PSBP@
 0000:0602       __IOERROR
 0000:063B       __DOSERROR
 0000:064D       _isatty
 0000:065E       __LONGTOA
 0000:06E0       __UTOA
 0000:0700       _lseek
 0000:0729       __MKNAME
 0000:0786 idle  __TMPNAM
 0000:07DF       N_LXMUL@
 0000:07F6       N_PCMP@
 0000:0817       _srand
 0000:0828       _rand
 0000:084E       __read
 0000:087D       _segread
 0000:089D       _setdate
 0000:08B2       _settime
 0000:08C7       __setupio
 0000:0981 idle  _stime
 0000:09C1       _time
 0000:0A19       _unlink
 0000:0A49       __VPRINTER
 0000:0F0C       __stpcpy
 0000:0F40       _coreleft
 0000:0FA1       _delay
 0000:1000 idle  __AHINCR
 0000:1002 idle  ___first
 0000:1004 idle  ___last
 0000:1006 idle  ___rover
 0000:1142       _free
 0000:1142 idle  _farfree
 0000:124C       _malloc
 0000:1256       _farmalloc
 0000:13B3 idle  _realloc
 0000:13BA idle  _farrealloc
 0000:14AA       __brk
 0000:14E9       __sbrk
 0000:1574       _farcoreleft
 0000:15C4       _int86
 0000:15F5 idle  _int86x
 0000:168E       _ioctl
 0000:16B7       __REALCVT
 0000:17E6       _setblock
 0000:185A       _atol
 0000:18CF idle  _atoi
 0000:18E0       __chmod
 0000:18FD       _close
 0000:1925       __close
 0000:1943       _eof
 0000:19BA       _fclose
 0000:1A72       _fflush
 0000:1B3F       _findfirst
 0000:1B72 idle  _findnext
 0000:1B9F       _filelength
 0000:1BE0       _flushall
 0000:1CDE idle  __OPENFP
 0000:1DAF idle  __GETFP
 0000:1DF9       _fopen
 0000:1F22       _fread
 0000:2032       _fseek
 0000:20B2       _ftell
 0000:2192       _fwrite
 0000:22D3       __fgetc
 0000:22E8 idle  __Nfgetc
 0000:22EB idle  _fgetc
 0000:23D9 idle  _fgetchar
 0000:23E5       _getenv
 0000:2455 idle  _itoa
 0000:2480 idle  _ultoa
 0000:249D       _ltoa
 0000:24C5       _memcpy
 0000:24E9 idle  _setmem
 0000:250D       _memset
 0000:252C       _movmem
 0000:257E idle  _memmove
 0000:25CC       _open
 0000:273B       __open
 0000:278A       _printf
 0000:27A5 idle  __fputc
 0000:27C1 idle  _fputc
 0000:2956 idle  _fputchar
 0000:296A       __FPUTN
 0000:2B6D       ___read
 0000:2C3E       _setvbuf
 0000:2D5B       _strcat
 0000:2D9A       _strchr
 0000:2DD7       _strcpy
 0000:2E00       _strlen
 0000:2E1F       _strncpy
 0000:2E50       _dostounix
 0000:2F7A       _unixtodos
 0000:317E       _tzset
 0000:336C       __ISDST
 0000:344B       ___write
 0000:359C       __write
 0000:35D8       __xfclose
 0000:3615       __xfflush
 0364:000D       _dolevel3
 0BBB:000E       _InitGameSound
 0BBB:0145       _CloseGameSound
 0BBB:016D       _play_voc
 0BBB:01D5 idle  _play_voc_loop
 0BBB:0236       _Load_Room_Sound
 0BBB:0395       _ClearSoundList
 0C00:0008       _AddNode
 0C00:0053 idle  _InsertNode
 0C00:008E idle  _AppendNode
 0C00:00CC idle  _RemoveNode
 0C00:010F idle  _InList
 0C00:0150       _InitList
 0C16:0008       _InstallFrontEnd
 0C16:0081       _RemoveFrontEnd
 0C16:0173       _UpdateTreasureScore
 0C3D:0092 idle  _check_cd
 0C3D:00D2       _main
 0C3D:1290 idle  _read_config_file
 0C3D:1551       _kill_and_cleanup
 0C3D:1565 idle  _memcheck
 0C3D:1607       _read_map
 0C3D:177E       _terminate
 0DB5:0007       _init_demo_sound
 0DB5:000C       _xctvd_terminate
 0DB5:0011       _load_sample
 0DB5:0029       _init_sample_sound
 0DB5:0062       _end_sample_sound
 0DB5:00EE       _play_sample
 0DB5:010D       _InitTunnelSamples
 0DB5:0131       _CloseTunnelSamples
 0DE1:00BB       _do_tunnels
 0DE1:0DCF idle  _next_level
 0DE1:0EB4       _do_passiveloop
 0DE1:1450 idle  _SuspendTunnel
 0DE1:147E idle  _ActivateTunnel
 0DE1:1C24       _update_tunnels
 0DE1:1C9C       _update_backwall
 0DE1:1EA5       _draw_lefthalf
 0DE1:1EFD       _draw_righthalf
 0DE1:2071 idle  _draw_backwall
 0DE1:23FD idle  _prev_section
 0DE1:247A       _next_section
 0DE1:24F7       _nex2_section
 0DE1:25AB       _prev_segment
 0DE1:2668       _next_segment
 0DE1:2D8E       _init_stand
 0DE1:2F0A       _Halt_Char
 0DE1:2F39       _Restore_Char
 0DE1:2F53 idle  _RefreshMap
 0DE1:2FC2 idle  _update_tlmap
 0DE1:32C3       _SetNrg
 0DE1:3756       _pit_here
 0DE1:3BC6       _do_fist
 0DE1:459D idle  _cheat_value
 0DE1:45DE       _set_cheat
 0DE1:4A8B idle  _do_inven
 0DE1:4ECE idle  _do_tunnel_calibrate
 12FD:0040       _config_input
 12FD:008A       _readjoy
 12FD:00F4 idle  _set_timer
 12FD:0105 idle  _set_joy_limits
 12FD:022E       _get_joy_position
 12FD:039B       _DosPrint
 12FD:0443 idle  _WaitKey
 12FD:045C idle  _raw_func
 12FD:054F       _detect_joy
 1355:0009 idle  _clear_temp_next
 1355:001C       _C_Load_Driver
 1355:0121       _C_Load_Voice
 1355:0264       _C_Load_Tune
 1355:0396       _C_Init_Effects
 1355:0460       _C_Close_Effects
 1355:047D       _LoadEffect
 1355:0518       _LoadRolandDriver
 1355:0674       _LoadRolandVoice
 13E8:001B       _gprepare
 13E8:004C       _gprep_kill
 13E8:0071 idle  _AddVolume
 13E8:00C1 idle  _RemoveVolume
 13E8:010B       _InitGfxSystem
 13E8:014E       _CloseGfxSystem
 13E8:0179 idle  _CloseGfxVolumes
 13E8:01C3       _CloseGfxVolume
 13E8:0287       _UseGfxVolume
 13E8:0396 idle  _FindVPic
 13E8:03D4       _GetVPic
 13E8:03FC       _KillVolPics
 13E8:0481       _FlushGfxVol
 13E8:0532       _OpenHDGfxVolume
 13E8:0886       _OpenGfxVolume
 13E8:0D18       _loadpic
 13E8:137F       _load_tun_tile
 13E8:16D1       _killpic
 13E8:17A2       _kill_tun_pic
 13E8:181C       _ginit
 13E8:1870       _clrcol
 13E8:18E8       _setcolors
 13E8:1993       _setcolor_reg
 13E8:19A9       _init_cycle
 13E8:1A3A       _halt_cycle
 13E8:1A79       _FadeIn
 13E8:1AD2       _FadeOut
 159A:000B       _init_anim
 159A:0138       _InitAnimSys
 159A:014B       _close_anim
 159A:0171       _CloseAnimSys
 159A:01AA       _FlashAnim
 159A:02AD       _DoFlashes
 159A:0381 idle  _KillFlash
 159A:041F       _KillFlashes
 159A:0462       _add_display
 159A:054B       _add_group
 159A:0677 idle  _frame_advance
 159A:06CD idle  _frame_rewind
 159A:071F       _pause_anim
 159A:0751       _unpause_anim
 159A:0783       _forward_anim
 159A:07B5       _reverse_anim
 159A:07E7       _reset_anim
 159A:084B       _addanim
 159A:0CFB       _copyanim
 159A:0D24       _kill_list
 159A:0DD2       _kill_anim
 159A:0E9D       _animate
 159A:0EB4       _Animate
 159A:0ECB       _update_anim
 159A:15C1       _halt_branch
 159A:1630       _move_anim
 170B:0004       _rnd
 170B:0048       _ezrandom
 1714:0001       _emm_install
 1714:0167       _emm_close
 1714:0199       _emm_alloc
 1714:01E4       _emm_free
 1714:0239       _emm_setpage
 1714:03AE       _d_compact_emm
 1766:0000       _do_scrool
 1783:000F       _InitObjectList
 1783:0118       _GetRoomInv
 1783:0177 idle  _GetObject
 1783:01BF idle  _IncInvCount
 1783:0240 idle  _DecInvCount
 1783:02C1 idle  _DropRoomObjs
 1783:031B       _TakeObject
 1783:039E idle  _DropObject
 1783:03DB       _PlaceObject
 1783:0414 idle  _WipeObject
 1783:044C       _WhereIsObj
 1783:046F       _MuttGotIt
 1783:0495       _LoadRoomPics
 1783:04F9       _KillRoomPics
 17D8:0002       _mode400
 17D8:008C       _waitvb
 17D8:00A0       _setpage
 17E4:0002       _UpdateAlist
 17E4:0313 idle  _timerst
 17E4:0317       _inittimer
 17E4:0372       _closetimer
 17E4:049B       _set_jiffy
 17E4:04B7       _close_jiffy
 17E4:04CB       _FadeSound
 183F:0002       _getkey
 183F:004D idle  _clearbuff
 183F:005A idle  _keyready
 183F:0062 idle  _setcaps
 183F:006D       _KeyState
 183F:007D       _kb_install
 183F:00BE       _kb_close
 1867:000A       _xfer_tiles
 1867:00B7       _blit_scr
 1867:04A1       SaveTileBack
 18B7:000E       _showpic
 1945:0006       _savepic
 1945:0105 idle  savback
 1945:018B idle  _restpic
 1945:020B idle  putback
 1945:0288 idle  _doreplace
 1945:02D6       _swappage
 1945:033B       _add_task
 1945:0374       _kill_task
 1945:03CE       _copypage
 1945:0409 idle  _wndcnt
 1945:041D       _clear_page
 198A:000E       _inittext
 198A:0030 idle  _toggletext
 198A:0038 idle  _getwndptr
 198A:0043 idle  _clrtxt
 198A:007F       _setwnd
 198A:00B2       _getwnd
 198A:00B6       _settext
 198A:01E8       _textcolor
 198A:01F3 idle  _putchr
 198A:02C1 idle  _gotoxy
 198A:02E9       _print
 198A:0397       _window
 198A:0405 idle  _clrwnd
 198A:04E5 idle  _mbar
 19DC:0008       _setpalette
 19DC:0040       _fade
 19ED:0002       _SilenceMusic
 19ED:006B       _EndAdlSound
 19ED:00C7       _EndRolandSound
 19ED:0112       _EndMusic
 19ED:015A       _play_effect
 19ED:018E       _do_sound
 19ED:01C0       _play_tune
 19ED:028E       _stop_music
 19ED:02C5       _InitMusic
 19ED:02F6       _InitAdlSound
 19ED:03C5       _InitRolandSound
 19ED:0464       _LoadTune
 1A42:0004       SBC_READ_DSP_TIME
 1A42:002B       SBC_WRITE_DSP_TIME
 1A42:0053 idle  SBC_READ_DSP
 1A42:0071       SBC_WRITE_DSP
 1A42:0090       SET_INT_VECTOR
 1A42:00A5       GET_INT_VECTOR
 1A42:00B8 idle  ENABLE_8259
 1A42:00D0 idle  DISABLE_8259
 1A42:00E6       _sbc_scan_int
 1A42:01F2       _sbc_scan_card
 1A42:01F2 idle  _ct_scan_card
 1A42:0220       _ct_card_here
 1A42:0220 idle  _sbc_check_card
 1A42:0398       _sbc_dsp_reset
 1A42:03C8 idle  _ctvm_version
 1A42:03D1       _ctvm_init
 1A42:040B idle  _ctvm_speaker
 1A42:041B idle  _ctvm_status_addx
 1A42:042F idle  _ctvm_stop
 1A42:0438       _ctvm_terminate
 1A42:0441 idle  _ctvm_input
 1A42:045E       _ctvm_output
 1A42:0472 idle  _ctvm_pause
 1A42:047B idle  _ctvm_continue
 1A42:0484 idle  _ctvm_break_loop
 1A8C:0000       CTVM_VOICE_DRV
 1B27:000D idle  __OVRGROUP
 1B27:000F idle  __DGROUP
 1B27:0018       __OVRINIT
 1B27:019B       __OVREXIT
 1B27:02A3       __InitModules
 1B27:04CE idle  __ReadOvrDisk
 1B27:07CD idle  __ISOVERLAYMOD
 1B27:0803 idle  __CHECKSTACK
 1B27:089B idle  __CHECKOVERLAY
 1B27:08F3 idle  __OvrPrepare
 1BBC:0010       __CALLEXTEMSSWAP
 1BBC:0012       __CALLEXTEXIT
 1BBC:0014       __CALLEMSEXIT
 1BBC:0016       __OVRHOOK__
 1BBC:001A idle  __OVRBACKLINK__
 1BBC:001C       __OVRFILENAME
 1BBC:00A0       __OVRTRAP__
 1BBC:00A2       __OvrMemorySwap
 1BBC:00A4       __OvrFileBase
 1BBC:00A8       __OvrRetrySize
 1BBC:00AA       __OvrMinHeapSize
 1BBC:00AC       __OvrTrapCount
 1BBC:00AE       __OvrProbation
 1BBC:00B0       __OvrHeapPtr
 1BBC:00B2       __OvrCodeList
 1BBC:00B4       __OvrHeapOrg
 1BBC:00B6       __OvrHeapEnd
 1BBC:00B8       __OvrDosHandle
 1BBC:00BA       __OvrLoadCount
 1BBC:00BC       __OvrLoadList
 1BBC:00C0       __SEGTABLE__
 1BBC:0398       __EXENAME__
 1BBC:0398       __SEGTABEND__
 1BBC:03A4       __EXEDATE__
 1BF7:0381       _endseq
 1BFD:0192       _SavesOnDisk
 1BFD:01A6       _do_loadreq
 1BFD:0FB2       _SaveGame
 1BFD:137E       _do_save
 1C03:0436       _do_gob
 1C03:1A01 idle  _MuttJump
 1C13:01FC       _dodeath
 1C1D:0177       _do_torture
 1C22:01F8       _do_request
 1C25:0364       _do_intro
 1C28:093A       _do_a1
 1C3E:1A53       _do_spider
 1C48:0000       _dogood
 1C48:039E idle  _LoadGoodiesAnims
 1C48:066B idle  _UpdateInv
 1C48:06FF idle  _UpdateMenu
 1C48:0766 idle  _ResetMenuPics
 1C48:07C5 idle  _StartMenu
 1C48:0A05 idle  _MenuHandler
 1C48:0BFC idle  _SelectItem
 1C48:0C24 idle  _UnSelectItem
 1C4E:0000 idle  _spindle
 1C4E:0193 idle  _turn_slabs
 1C4E:03D6 idle  _endseq_1
 1C4E:0415 idle  _endseq_2
 1C4E:0440 idle  _endseq3
 1C4E:04D3 idle  _end_pickup
 1C4E:05B9 idle  _test_for_mt
 1C4E:06A0 idle  _test_for_kick
 1C4E:07E3       _do_furnace
 1C4E:11B0 idle  _generate_codes
 1C54:0000       _dotomb
 1C5A:0000 idle  _add_creature
 1C5A:017A idle  _kill_creature_list
 1C5A:01BE idle  _play
 1C5A:09C8 idle  _new_dir
 1C5A:0BBA       _read_in_map
 1C5A:0C95 idle  _creature_distance
 1C5A:0D2D idle  _ca_distance
 1C5A:0EA0 idle  _aa_distance
 1C5A:0FEC       _brush_collision
 1C5F:093A       _do_a2
 1C5F:1C17 idle  _SM_KillMutt
 1C72:0000       _dodark
 1C78:0000       _dorealdark
 1C7C:01FC       _dodragon
 1C83:01FC       _dowitch
 1C8C:0000       _doskull
 1C98:0000       _dolava
 1C98:0400 idle  _MuttDie
 1C98:0476 idle  _LaneXPos
 1C98:04A7 idle  _LaneYPos
 1C98:04DB idle  _JumpEnd
 1C98:05CC idle  _BurnAndDie
 1C98:0665 idle  _JumpMutt
 1C98:092F idle  _JumpLedge
 1C98:098B idle  _JumpStep
 1C98:0A26 idle  _JumpDoor
 1C98:0A66 idle  _MuttOffStone
 1C98:0A86 idle  _StoneHit
 1C98:0B2B idle  _LoadRoomAnims
 1C98:0D9A idle  _DoStones
 1C98:0DEF idle  _KeyCode
 1C98:0E3D idle  _StandAnimCode
 1C98:0E57 idle  _MakeCurrent
 1C98:0E64 idle  _StoneHandler
 1C98:105E idle  _RemoveKey
 1C98:107C idle  _CheckStones
 1C98:114C idle  _StartNewStone
 1C98:12F8 idle  _FixAnims
 1C98:13A9 idle  _InitMuttJump
 1C98:1497 idle  _JumpFinishCode
 1C98:14ED idle  _CloseMuttJump
 1C98:15A5 idle  _DieCode
 1C98:15FC idle  _DoorFunc
 1C98:161C idle  _StartMuttJump
 1C98:1837 idle  _CalcJump
 1C98:190E idle  _MuttJumpHandler
 1CA4:0000       _dosac
 1CAA:01FC       _dofrog
 1CAA:1022 idle  _MuttLoc
 1CB9:0000       _dosol
 1CC3:0000       _dohour
 1CCA:017A       _domac
 1CCA:0843 idle  _UmpShoutCode
 1CCA:087F idle  _UmpWatchCode
 1CCA:09E8 idle  _MuttHit
 1CCA:09F8 idle  _WalkOutCode
 1CE1:020B       _dosiren
 1CE8:0000       _dolaser
 1CEE:0060       _do_arena5
 1CFB:01FC       _dobar
 1D06:0000       _dobub
 1D14:0000 idle  _do_disc
 1D18:0000       _dochess
 1D1F:01FC       _dodemon
 1D2A:0000       _dogarden
 1D2F:003C       _domed
 1D36:026D       _do_rod
 1D36:1A31 idle  _dsetup_anim
 1D36:1A4B idle  _dreset_anim
 1D46:0000       _init_animeffects
 1D46:0F67       _update_objlsts
 1D46:11F2       _process_objlst
 1D46:13D1 idle  _turn_code
 1D46:3001 idle  _do_shok
 1D46:3C1B idle  _tfpit_code
 1D46:4616       _load_panims
 1D46:471D       _kill_panims
 1D46:47B8       _init_ddas
 1D46:5013       _clean_ddas
 1D46:50C2       _halt_groups
 1D46:5145       _activate_grps
 1D46:541B       _anim_distance
 1D46:554C idle  _ddahandle
 1D46:55C1 idle  _freehandle
 1D46:58BA       _edit_objlsts
 1D46:5FF5 idle  _clear_section
 1D46:602B idle  _empty_objlsts
 1D46:60D0 idle  _write_objmap
 1D46:613A idle  _grp_insert
 1D46:6252 idle  _grp_remove
 1D46:6304 idle  _grp_change
 1D46:639B       _init_maps
 1D46:63C4       _free_maps
 1D46:6409       _LoadMaps
 1D46:65D9       _MP_Flags
 1D46:6626 idle  _MP_objlist
 1D46:663B idle  _MP_Neighbour
 1D46:66A8       _MP_xcoord
 1D46:66BF       _MP_ycoord
 1D46:66D6       _MP_ClearFlag
 1D46:6727       _room_index
 1D46:6D81 idle  _do_piano
 1D62:036D       _do_ent
 1D62:196D idle  _CheckMoveFoe
 1D62:1C39 idle  _ActivateBridgeCode
 1D78:0000 idle  _new_anim
 1D78:0042       _do_soul
 1D7C:039A       _do_exit
 1D8C:0000       _do_swamp1
 1D93:0000       _getmem
 1D93:0010       _freemem
 1D93:0023       _vinit
 1D93:0071       _valloc
 1D93:0106       _vfree
 1D93:01AB idle  _sort
 1D93:029D idle  _makefree
 1D93:03D0       _d_fopen
 1D93:03FC       _d_fclose
 1D98:0000 idle  DATASEG@
 1D98:005B idle  __Int0Vector
 1D98:005F idle  __Int4Vector
 1D98:0063 idle  __Int5Vector
 1D98:0067 idle  __Int6Vector
 1D98:006B       __C0argc
 1D98:006D       __C0argv
 1D98:0071       __C0environ
 1D98:0075       __envLng
 1D98:0077       __envseg
 1D98:0079       __envSize
 1D98:007B       __psp
 1D98:007D idle  __osversion
 1D98:007D       __osmajor
 1D98:007D idle  __version
 1D98:007E idle  __osminor
 1D98:007F       _errno
 1D98:0081 idle  __StartTime
 1D98:0085 idle  ___brklvl
 1D98:0087       __heapbase
 1D98:008B       __brklvl
 1D98:008F       __heaptop
 1D98:0094       _Refresh
 1D98:0096 idle  _TimeCycle
 1D98:0246 idle  _init_slstdata
 1D98:0ADE       _ent_initdata
 1D98:0B06       _a1_extra
 1D98:0B38       _tort_extra
 1D98:0B54       _tun_initdata
 1D98:0D7A idle  _SoundsList
 1D98:1449 idle  _scard_types
 1D98:1D24 idle  _success
 1D98:1D26 idle  _lftstop
 1D98:1D28 idle  _slabmove
 1D98:1D2A idle  _mutt_furn
 1D98:29C8 idle  _MuttTopFix
 1D98:29E8 idle  _JumpDx
 1D98:29FA idle  _JumpDy
 1D98:2A0C idle  _JumpModDx
 1D98:2A1E idle  _JumpModDy
 1D98:2A30 idle  _MuttJumpSpeed
 1D98:2A32 idle  _MuttJumpYmods
 1D98:2BF8 idle  _Button
 1D98:2D1A idle  _EyeCount
 1D98:317A idle  _win0
 1D98:31DE idle  _num0
 1D98:36A8 idle  _ddaids
 1D98:37F5 idle  _pickup_frame
 1D98:381A idle  _pit_codes1
 1D98:3832 idle  _Obj_Func
 1D98:38C6 idle  _Special_Func
 1D98:38D2       _level_array
 1D98:38D6 idle  _in
 1D98:38DA idle  _map
 1D98:38EE idle  _mapobjfile
 1D98:38F2 idle  _currdda
 1D98:39F6 idle  _init_trans
 1D98:3A3A idle  _trans_loc
 1D98:3A5C       _LevelGold
 1D98:3A9E idle  _obj_maps
 1D98:3AB4       _bbar_info
 1D98:3B62 idle  _mleft_bk
 1D98:3B64 idle  _kdirs
 1D98:3B74 idle  _dlevel3
 1D98:3B76 idle  _dom_dom
 1D98:3BE4 idle  _do_rooms
 1D98:3CC0       _roomst
 1D98:3CC3 idle  _DoRooms
 1D98:3CC4       _mutt_wins
 1D98:3CC6       _dorequest
 1D98:3CC8       _NewLevel
 1D98:3CCA idle  _FoodStore
 1D98:3CCC       __ovrbuffer
 1D98:41EC idle  _FoeCharacterCode
 1D98:4214 idle  _FoeAnimList
 1D98:4500       _NoSound
 1D98:4502 idle  _voc_buffer
 1D98:4506       _SampleIndex
 1D98:4508 idle  _TunnelSoundVol
 1D98:4518       _InTunnels
 1D98:451A idle  _fading
 1D98:451C idle  _loadpermit
 1D98:451E idle  _calibch
 1D98:4520       _cheat_val
 1D98:4522       _NoSamplePlaying
 1D98:455C idle  _grp_priority
 1D98:45CE idle  _OldSection
 1D98:45D0       _NotDead
 1D98:45D4 idle  _DoInven
 1D98:45D6       _NrgLevel
 1D98:45D8 idle  _NewNrg
 1D98:45DE       _mytimer
 1D98:45E2       _myskip
 1D98:45E3 idle  _GameTime
 1D98:45E5 idle  _EntityNdx
 1D98:45E6 idle  _gch
 1D98:45E7 idle  _TMask
 1D98:45E9 idle  _levelexit
 1D98:47FA       _joyold
 1D98:47FC       _joynew
 1D98:47FE       _joytrig
 1D98:4800       _Control
 1D98:480B       _keys
 1D98:4D9E idle  _GfxLoadErrors
 1D98:4DA0 idle  _picalloc
 1D98:4DA2 idle  _cutaway
 1D98:4DA4 idle  _kill_room
 1D98:4DA6       _ISFadeOut
 1D98:4DA8 idle  _GfxVolList
 1D98:4DAC       _CurrentGfxVol
 1D98:4DB0       _CycHead
 1D98:4DCE idle  _nanims
 1D98:4DD0 idle  _maxanim
 1D98:4DD2       _ahead
 1D98:4DD6 idle  _animblk
 1D98:4DDA idle  _delays
 1D98:4E70       _frame_count
 1D98:4E72       _frame_rate
 1D98:4E74       _exclude
 1D98:4E82 idle  _LastBlk
 1D98:4E84 idle  _MaxBlks
 1D98:4E86 idle  _alloccount
 1D98:4E88 idle  _freecount
 1D98:4E8A idle  _d_fopens
 1D98:4E8C idle  _max_fopens
 1D98:4E8E idle  _rndini
 1D98:4E90 idle  _s1
 1D98:4E91 idle  _s2
 1D98:4E92 idle  _s3
 1D98:4E98       _scrol_rl
 1D98:4E9A       _scrol_ud
 1D98:4E9C idle  _HasEveryThing
 1D98:4E9E idle  _ObjectData
 1D98:5132       _ObjInit
 1D98:5136       page
 1D98:5138       _page
 1D98:513A       vb_flag
 1D98:514A       _tiflag
 1D98:514C       _animfin
 1D98:514E idle  _ignore_timer
 1D98:5153 idle  _timecount
 1D98:5157 idle  _injoy
 1D98:515A idle  _ConfigKeys
 1D98:515C       _North
 1D98:515D       _South
 1D98:515E       _East
 1D98:515F       _West
 1D98:5160       _Switch1
 1D98:5161       _Switch2
 1D98:52C0       _tileset
 1D98:52C4       _scr_ht
 1D98:52C6       _scr_wid
 1D98:52C8       _scr_x
 1D98:52CA       _scr_y
 1D98:52CC       _OldX
 1D98:52CE       _OldY
 1D98:52D0       _page_x
 1D98:52D2       _page_y
 1D98:52D4       _max_x
 1D98:52D6       _max_y
 1D98:52D8       _MaxTiles
 1D98:52DE       sndx
 1D98:52E0       _wopen
 1D98:538C       _repfrms
 1D98:548C       _maxrep
 1D98:548E idle  _showhid
 1D98:5490       _backptr
 1D98:54A0 idle  txtorg
 1D98:54A6 idle  backptr
 1D98:54A8 idle  _txtupdt
 1D98:54AA idle  _page_mask
 1D98:54AC       _scrpal
 1D98:57AC       _curpal
 1D98:5AAC       _part
 1D98:60AC       _accum
 1D98:66AC       _firstreg
 1D98:66AE       _firstregX3
 1D98:66B0       _regcnt
 1D98:66B2       _regcntX3
 1D98:66B4       _stepcnt
 1D98:66B6       _dflag
 1D98:66B8 idle  _NoMusic
 1D98:66BA       _NoGameSound
 1D98:66BC       _sound_flags
 1D98:66BE       _sound_ok
 1D98:66CC       _driver_seg
 1D98:66CE       _tune_seg
 1D98:66D0       _roland_seg
 1D98:66F4       _curr_slot
 1D98:6706 idle  SBC_INT_MASK_DATA
 1D98:6708       _ct_voice_status
 1D98:670A       _ct_io_addx
 1D98:670C       _ct_int_num
 1D98:6712       __OvrSize
 1D98:6716       __atexitcnt
 1D98:6718       __ctype
 1D98:681A       __exitbuf
 1D98:681E       __exitfopen
 1D98:6822 idle  __exitopen
 1D98:6826       __streams
 1D98:69B6       __nfile
 1D98:69B8       __openfd
 1D98:69E0       __fmode
 1D98:69E2       __notUmask
 1D98:69E4       __doserrno
 1D98:69E6 idle  __dosErrorToSV
 1D98:6A4E       __stklen
 1D98:6AF0 idle  __argc
 1D98:6AF2 idle  __argv
 1D98:6B00       _environ
 1D98:6B16 idle  __monthDay
 1D98:6B30 idle  _tzname
 1D98:6B38       _timezone
 1D98:6B3C       _daylight
 1D98:6B4A       __RealCvtVector
 1D98:6B4C idle  __ScanTodVector
 1D98:6B84 idle  _safety1
 1D98:6B88 idle  _safety
 1D98:7264       _Srlist
 1D98:73CA idle  _num_top
 1D98:73CE idle  _mesh
 1D98:73E2 idle  _num
 1D98:73F2 idle  _gob_top
 1D98:73F6 idle  _gob
 1D98:740A idle  _hi_bottom
 1D98:740E idle  _hi_mid
 1D98:7412 idle  _hi_right
 1D98:7416 idle  _hi_top
 1D98:741A idle  _ffblk
 1D98:7445 idle  _avail
 1D98:77AA idle  _Death
 1D98:7856 idle  _go_down
 1D98:7858 idle  _go_up
 1D98:785A idle  _go_right
 1D98:785C idle  _go_left
 1D98:785E       _playagain
 1D98:78BC idle  _lut
 1D98:7D10 idle  _spider_struct
 1D98:7D4C idle  _flash_object
 1D98:7DA0 idle  _target_dir
 1D98:7DB6 idle  _bag
 1D98:7E34 idle  _temp_pointer
 1D98:7E38 idle  _BoxFrame
 1D98:7E58 idle  _BoxAnim
 1D98:7E68 idle  _leaveroom
 1D98:7E6A idle  _MenuAnim
 1D98:7E6E idle  _ReflectEnter
 1D98:7E72 idle  _MuttManim
 1D98:7E76 idle  _CurrMutt
 1D98:7E7A idle  _MuttExit
 1D98:7E7E idle  _MuttEnter
 1D98:7E82 idle  _room
 1D98:7E84 idle  _numitems
 1D98:7E86 idle  _totalitems
 1D98:7E88 idle  _curritem
 1D98:7E8A idle  _lastitem
 1D98:7E8C idle  _startitem
 1D98:7E8E idle  _Invent
 1D98:7F56 idle  _dial_code
 1D98:7F5C idle  _StayPut
 1D98:7F5E idle  _direction
 1D98:7F60 idle  _avoid2
 1D98:7F62 idle  _avoid1
 1D98:7F64 idle  _old_fire_slab1
 1D98:7F66 idle  _fire_slab1
 1D98:7F68 idle  _fire_slab
 1D98:7F6A idle  _success1
 1D98:7F6C idle  _GameOver
 1D98:7F6E idle  _muttexit
 1D98:7F72 idle  _rack
 1D98:7F76 idle  _chair
 1D98:7F7A idle  _fall1
 1D98:7F7E idle  _jhand
 1D98:7F82 idle  _jaler1
 1D98:7F86 idle  _anvil_sqwsh
 1D98:7F8A idle  _slug_sqwsh
 1D98:7F8E idle  _pickup_drop
 1D98:7F92 idle  _key
 1D98:7F96 idle  _slab7
 1D98:7F9A idle  _door
 1D98:7F9E idle  _ton_wght
 1D98:7FA2 idle  _rope
 1D98:7FA6 idle  _dial
 1D98:7FB2 idle  _slab
 1D98:7FCA idle  _anvil_drop1
 1D98:7FCE idle  _lgb_wait
 1D98:7FD2 idle  _kickanim
 1D98:7FD6 idle  _turnspindle
 1D98:7FDA idle  _muttst1
 1D98:7FDE idle  _muttrun1
 1D98:7FE2 idle  _lost_soul3
 1D98:7FE6 idle  _lost_soul2
 1D98:7FEA idle  _lost_soul1a
 1D98:7FEE idle  _lost_soul1
 1D98:7FF2 idle  _fire
 1D98:800A idle  _fireanim7
 1D98:800E idle  _slabs
 1D98:8034 idle  _pictptr
 1D98:80DA idle  _temp_map
 1D98:80E2 idle  _remember
 1D98:80E6       _mapptr
 1D98:80EA idle  _old_creature_dir
 1D98:80EC idle  _creature_dir
 1D98:80EE idle  _y_diff
 1D98:80F0 idle  _x_diff
 1D98:80F2 idle  _temp
 1D98:80F6 idle  _current
 1D98:80FA idle  _mutt
 1D98:813A       _mutt_lowest_prio
 1D98:813E       _mutt_highest_prio
 1D98:81FF idle  _sprite
 1D98:84B0 idle  _SkullChar
 1D98:84B4 idle  _MuttChar
 1D98:84D8 idle  _PlatForm
 1D98:84E0 idle  _Birds
 1D98:84E8 idle  _mutt_pick
 1D98:856C idle  _JumpEndCode
 1D98:8570 idle  _MuttJumpTop
 1D98:8574 idle  _MuttJumpDown
 1D98:8578 idle  _MuttJumpUp
 1D98:857C idle  _JumpPic
 1D98:85FC idle  _MuttTopFix3
 1D98:85FE idle  _MuttTopFix2
 1D98:8600 idle  _MuttTopFix1
 1D98:8602 idle  _MuttOldState
 1D98:8604 idle  _MaxJumpDy
 1D98:8606 idle  _MaxJumpDx
 1D98:8608 idle  _MuttJumpY
 1D98:860A idle  _MuttJumpX
 1D98:860C idle  _MuttJumpDy
 1D98:860E idle  _MuttJumpDx
 1D98:8610 idle  _MuttJumpTopFrame
 1D98:8612 idle  _MuttJumpTopEnd
 1D98:8614 idle  _MuttJumpFrames
 1D98:86C6 idle  _StoneY
 1D98:86CE idle  _StoneX
 1D98:96CA idle  _SlingerWalk
 1D98:96DA idle  _SlingerDie
 1D98:A1EE idle  _yrnum
 1D98:A1F6 idle  _mynum
 1D98:A1FE idle  _bottom_a
 1D98:A202 idle  _top_a
 1D98:A550 idle  _ShoeLst
 1D98:A6B4 idle  _fullenergy
 1D98:A6B8 idle  _muttgkey
 1D98:A6BC idle  _keyover1
 1D98:A6C0 idle  _handkey1
 1D98:A6C4 idle  _handy1
 1D98:A6C8 idle  _handy
 1D98:A6CC idle  _pflame
 1D98:A6D0 idle  _fburn
 1D98:A6D4 idle  _bburn
 1D98:A6D8 idle  _tfsat
 1D98:A6DC idle  _tbsat
 1D98:A6E0 idle  _fgrab
 1D98:A6E4 idle  _bgrab
 1D98:A6E8 idle  _bbar_goodie
 1D98:A6FC idle  _mutt_grab
 1D98:A700 idle  _out_a
 1D98:A704 idle  _mt_a
 1D98:A708 idle  _hind_a
 1D98:A70C idle  _grab_anim
 1D98:A710 idle  _grab_a
 1D98:A714 idle  _godsover
 1D98:A718 idle  _dmnd_a1
 1D98:A71C idle  _hpickb
 1D98:A720 idle  _hpickf
 1D98:A724 idle  _hpickr
 1D98:A728 idle  _hpickl
 1D98:A72C idle  _rsquirt
 1D98:A730 idle  _lsquirt
 1D98:A734 idle  _mtexplode
 1D98:A738 idle  _rarrowb
 1D98:A73C idle  _larrowb
 1D98:A740 idle  _rdart
 1D98:A744 idle  _ldart
 1D98:A748 idle  _rimpale
 1D98:A74C idle  _limpale
 1D98:A750 idle  _ppotion
 1D98:A754 idle  _pmagik
 1D98:A758 idle  _pdust2
 1D98:A75C idle  _pdust1
 1D98:A760 idle  _piano
 1D98:A764 idle  _tsplat
 1D98:A768 idle  _train
 1D98:A76C idle  _bshok
 1D98:A770 idle  _shok
 1D98:A774 idle  _pickor
 1D98:A778 idle  _pickol
 1D98:A77C idle  _pickr
 1D98:A780 idle  _pickl
 1D98:A784 idle  _mtpickor
 1D98:A788 idle  _mtpickr
 1D98:A78C idle  _mtpickol
 1D98:A790 idle  _mtpickl
 1D98:A794 idle  _pickos
 1D98:A798 idle  _pickfs
 1D98:A79C idle  _picko
 1D98:A7A0 idle  _pickf
 1D98:A7A4 idle  _mtpickos
 1D98:A7A8 idle  _mtpickfs
 1D98:A7AC idle  _mtpicko
 1D98:A7B0 idle  _mtpickf
 1D98:A7B4 idle  _spiker
 1D98:A7B8 idle  _spikel
 1D98:A7BC idle  _mbspike
 1D98:A7C0 idle  _mfspike
 1D98:A7C4 idle  _mbslapr
 1D98:A7C8 idle  _mbslapl
 1D98:A7CC idle  _mfslapr
 1D98:A7D0 idle  _mfslapl
 1D98:A7D4 idle  _rhand
 1D98:A7D8 idle  _lhand
 1D98:A7DC idle  _rightflamex
 1D98:A7E0 idle  _mrflameb
 1D98:A7E4 idle  _mrflame
 1D98:A7E8 idle  _rightflame
 1D98:A7EC idle  _rightlong
 1D98:A7F0 idle  _leftlong
 1D98:A7F4 idle  _leftflamex
 1D98:A7F8 idle  _mlflameb
 1D98:A7FC idle  _mlflame
 1D98:A800 idle  _leftflame
 1D98:A804 idle  _muttclimb
 1D98:A810 idle  _mtfall
 1D98:A814 idle  _splash
 1D98:A818 idle  _effect_header
 1D98:A81C idle  _ohno
 1D98:A820 idle  _poff
 1D98:A824 idle  _efghand
 1D98:A828 idle  _ihand
 1D98:A834 idle  _hhand
 1D98:A840 idle  _fhand
 1D98:A84C idle  _ehand
 1D98:A858 idle  _ghand
 1D98:A898       _maplst
 1D98:A89C idle  _lst
 1D98:A974 idle  _special_ddas
 1D98:A980 idle  _objs
 1D98:A9D0 idle  _rturndda
 1D98:A9D4 idle  _lturndda
 1D98:A9D8 idle  _ddalst
 1D98:ADDA       _Obj_Lst
 1D98:AEB2 idle  _initalst
 1D98:AEB6 idle  _BlockHeader
 1D98:AEBC idle  _numrec
 1D98:AEBE       _map_to_show
 1D98:B879 idle  _mapoffsets
 1D98:B882 idle  _test2
 1D98:B886 idle  _test1
 1D98:B88A       _temp_next
 1D98:B8DA       _hd_next
 1D98:B92A       _input_data
 1D98:B944       _Mutt
 1D98:B948       _TunVol
 1D98:B94C idle  _memleft
 1D98:B950       _grp_header
 1D98:B980       _KeyCount
 1D98:B981       _TreasureScore
 1D98:B985       _mutt_ndx
 1D98:B987 idle  _furnace_code
 1D98:B989       _WitchCombination
 1D98:B98B       _scrollxmax
 1D98:B98D       _scrollymax
 1D98:B98F       _jiffy_cnt
 1D98:B995 idle  _domm1
 1D98:B999 idle  _font
 1D98:B99D idle  _buffer
 1D98:B9A1 idle  _list
 1D98:BAB6 idle  _EnergyDeduction
 1D98:BD4C idle  _update_energy
 1D98:BD56 idle  _zfalloub
 1D98:BD5A idle  _zfallou
 1D98:BD5E idle  _zbshok
 1D98:BD62 idle  _zshok
 1D98:BD66 idle  _zap
 1D98:BD6A idle  _spark1
 1D98:BD6E idle  _spark
 1D98:BD72 idle  _zentity
 1D98:BD76 idle  _fdoor
 1D98:BD7A idle  _muttupstrs
 1D98:BD7E idle  _muttdnstrs
 1D98:BD82 idle  _muttdnstr
 1D98:BD86 idle  _muttupstr
 1D98:BD8A idle  _stair
 1D98:BD8E idle  _arrowup
 1D98:BD92 idle  _stairarch
 1D98:BD96 idle  _downstairs
 1D98:BD9A idle  _upstairs
 1D98:BD9E idle  _jailorb
 1D98:BDA2 idle  _jailor
 1D98:BDA6 idle  _mutt_falloutb
 1D98:BDAA idle  _mutt_fallout
 1D98:BDAE idle  _mutt_weak
 1D98:BDB2       _tdoorarch
 1D98:BDB6 idle  _doorarch
 1D98:BDBA idle  _mut_dot
 1D98:BDCA idle  _tunnelpics
 1D98:BDEA       _halfwr
 1D98:BDF6       _halfwl
 1D98:BE02 idle  _spider_eek
 1D98:BE06 idle  _tspider
 1D98:BE0A idle  _bats
 1D98:BE12 idle  _fist
 1D98:BE1A idle  _arch
 1D98:BE1E idle  _bdoor
 1D98:BE22 idle  _wallfront
 1D98:BE26       _backwall
 1D98:BE2A idle  _eyes2
 1D98:BE2E idle  _eyes1
 1D98:BE32 idle  _bubbles
 1D98:BE36 idle  _smoke
 1D98:BE3A idle  _fdoor1
 1D98:BE3E idle  _lookout
 1D98:BE42 idle  _lookin
 1D98:BE46       _tdooropen
 1D98:BE4A idle  _mtunlock
 1D98:BE4E idle  _opendoor
 1D98:BE52 idle  _muttkick
 1D98:BE56 idle  _djump
 1D98:BE5A idle  _stand
 1D98:BE5E idle  _walk
 1D98:BE94 idle  _MemSaveVol
 1D98:BE98       _EditMode
 1D98:BE9A       _core
 1D98:BE9E       _d_midy
 1D98:BEA0       _d_midx
 1D98:BEA2       _d_down
 1D98:BEA4       _d_up
 1D98:BEA6       _d_right
 1D98:BEA8       _d_left
 1D98:BEAA       _d_down_limit
 1D98:BEAC       _d_up_limit
 1D98:BEAE       _d_right_limit
 1D98:BEB0       _d_left_limit
 1D98:BEB2       _joy_y
 1D98:BEB4       _joy_x
 1D98:BEB6 idle  _Effects_Ptr
 1D98:BEBA idle  _Effects_File
 1D98:BEBE idle  _tptr
 1D98:BEC0 idle  _old_gfx_vol
 1D98:BEC4       _gprep_vol
 1D98:BEC8 idle  _offsets
 1D98:BECC idle  _alst
 1D98:C46C idle  _MemLst
 1D98:C470 idle  _fchnks
 1D98:C472 idle  _chnkcnt
 1D98:C474 idle  _fsizes
 1D98:C674 idle  _sizes
 1D98:C874 idle  _alist
 1D98:CA74 idle  _flist
 1D98:CC74       _h
 1D98:CC78 idle  _emm_handle
 1D98:CC7A idle  _allocpages
 1D98:CC7C       _freepages
 1D98:CC7E idle  _pagefrm
 1D98:CC80 idle  _emm_active
 1D98:CC86       _scrol_pix_rl
 1D98:CC88       _scrol_pix_ud
 1D98:CC8A       _down_limit
 1D98:CC8C       _up_limit
 1D98:CC8E       _left_limit
 1D98:CC90       _right_limit
 1D98:CC92       _ObjectList
 1D98:D65A       __atexittbl

Program entry point at 0000:0000

